GAS LISTING /tmp/cc9bJXjD.s 			page 1


   1              		.file	"kConsole.cpp"
   2              		.option pic
   3              		.option norelax
   4              		.text
   5              	.Ltext0:
   6              		.align	2
   7              		.globl	_ZN8kConsole9sendCharsEv
   9              	_ZN8kConsole9sendCharsEv:
  10              	.LFB47:
  11              		.file 1 "src/kConsole.cpp"
   1:src/kConsole.cpp **** //
   2:src/kConsole.cpp **** // Created by os on 8/18/22.
   3:src/kConsole.cpp **** //
   4:src/kConsole.cpp **** 
   5:src/kConsole.cpp **** #include "../h/kConsole.hpp"
   6:src/kConsole.cpp **** 
   7:src/kConsole.cpp **** 
   8:src/kConsole.cpp **** int kConsole::capacity = 1000;
   9:src/kConsole.cpp **** int kConsole::headOB = 0;
  10:src/kConsole.cpp **** int kConsole::tailOB = 0;
  11:src/kConsole.cpp **** char kConsole::outputBuffer[1000];
  12:src/kConsole.cpp **** 
  13:src/kConsole.cpp **** int kConsole::headIB = 0;
  14:src/kConsole.cpp **** int kConsole::tailIB = 0;
  15:src/kConsole.cpp **** char kConsole::inputBuffer[1000];
  16:src/kConsole.cpp **** 
  17:src/kConsole.cpp **** kConsole::Node* kConsole::head = nullptr;
  18:src/kConsole.cpp **** kConsole::Node* kConsole::tail = nullptr;
  19:src/kConsole.cpp **** 
  20:src/kConsole.cpp **** bool kConsole::received = false;
  21:src/kConsole.cpp **** 
  22:src/kConsole.cpp **** 
  23:src/kConsole.cpp **** 
  24:src/kConsole.cpp **** 
  25:src/kConsole.cpp **** void kConsole::sendChars(){
  12              		.loc 1 25 27
  13              		.cfi_startproc
  14 0000 130101FF 		addi	sp,sp,-16
  15              		.cfi_def_cfa_offset 16
  16 0004 23348100 		sd	s0,8(sp)
  17              		.cfi_offset 8, -8
  18 0008 13040101 		addi	s0,sp,16
  19              		.cfi_def_cfa 8, 0
  20              	.L3:
  26:src/kConsole.cpp **** 
  27:src/kConsole.cpp **** 
  28:src/kConsole.cpp ****     while(*(char*)CONSOLE_STATUS & (char)CONSOLE_TX_STATUS_BIT){
  21              		.loc 1 28 5
  22              		.loc 1 28 42
  23              		.loc 1 28 11 is_stmt 0
  24 000c 97070000 		la	a5,CONSOLE_STATUS
  24      83B70700 
  25 0014 83B70700 		ld	a5,0(a5)
  26 0018 83C70700 		lbu	a5,0(a5)
  27              		.loc 1 28 42
  28 001c 93F70702 		andi	a5,a5,32
  29 0020 638A0704 		beqz	a5,.L1
GAS LISTING /tmp/cc9bJXjD.s 			page 2


  30              	.LBB11:
  29:src/kConsole.cpp **** 
  30:src/kConsole.cpp ****         if (headOB == tailOB) return;
  31              		.loc 1 30 9 is_stmt 1
  32              		.loc 1 30 20 is_stmt 0
  33 0024 17070000 		lla	a4,.LANCHOR0
  33      13070700 
  34 002c 83270700 		lw	a5,0(a4)
  35 0030 03274700 		lw	a4,4(a4)
  36              		.loc 1 30 9
  37 0034 6380E704 		beq	a5,a4,.L1
  31:src/kConsole.cpp ****         char c = outputBuffer[headOB];
  38              		.loc 1 31 9 is_stmt 1
  39              		.loc 1 31 14 is_stmt 0
  40 0038 17070000 		lla	a4,.LANCHOR0
  40      13070700 
  41 0040 B307F700 		add	a5,a4,a5
  42 0044 83C68700 		lbu	a3,8(a5)
  43              	.LVL0:
  32:src/kConsole.cpp ****         *(char*)CONSOLE_TX_DATA = c;
  44              		.loc 1 32 9 is_stmt 1
  45 0048 97070000 		la	a5,CONSOLE_TX_DATA
  45      83B70700 
  46 0050 83B70700 		ld	a5,0(a5)
  47              		.loc 1 32 33 is_stmt 0
  48 0054 2380D700 		sb	a3,0(a5)
  33:src/kConsole.cpp ****         headOB = (headOB + 1)%capacity;
  49              		.loc 1 33 9 is_stmt 1
  50              		.loc 1 33 26 is_stmt 0
  51 0058 83270700 		lw	a5,0(a4)
  52 005c 9B871700 		addiw	a5,a5,1
  53              		.loc 1 33 30
  54 0060 97060000 		lw	a3,.LANCHOR1
  54      83A60600 
  55              	.LVL1:
  56 0068 BBE7D702 		remw	a5,a5,a3
  57              		.loc 1 33 16
  58 006c 2320F700 		sw	a5,0(a4)
  59              	.LVL2:
  60              	.LBE11:
  28:src/kConsole.cpp **** 
  61              		.loc 1 28 5
  62 0070 6FF0DFF9 		j	.L3
  63              	.L1:
  34:src/kConsole.cpp **** 
  35:src/kConsole.cpp **** 
  36:src/kConsole.cpp ****     };
  37:src/kConsole.cpp **** 
  38:src/kConsole.cpp **** }
  64              		.loc 1 38 1
  65 0074 03348100 		ld	s0,8(sp)
  66              		.cfi_restore 8
  67              		.cfi_def_cfa 2, 16
  68 0078 13010101 		addi	sp,sp,16
  69              		.cfi_def_cfa_offset 0
  70 007c 67800000 		jr	ra
  71              		.cfi_endproc
GAS LISTING /tmp/cc9bJXjD.s 			page 3


  72              	.LFE47:
  74              		.align	2
  75              		.globl	_ZN8kConsole12receiveCharsEv
  77              	_ZN8kConsole12receiveCharsEv:
  78              	.LFB48:
  39:src/kConsole.cpp **** 
  40:src/kConsole.cpp **** 
  41:src/kConsole.cpp **** void kConsole::receiveChars(){
  79              		.loc 1 41 30 is_stmt 1
  80              		.cfi_startproc
  81 0080 130101FF 		addi	sp,sp,-16
  82              		.cfi_def_cfa_offset 16
  83 0084 23348100 		sd	s0,8(sp)
  84              		.cfi_offset 8, -8
  85 0088 13040101 		addi	s0,sp,16
  86              		.cfi_def_cfa 8, 0
  42:src/kConsole.cpp **** 
  43:src/kConsole.cpp ****     received = false;
  87              		.loc 1 43 5
  88              		.loc 1 43 14 is_stmt 0
  89 008c 97070000 		sb	zero,.LANCHOR0+1008,a5
  89      23800700 
  90              	.L7:
  44:src/kConsole.cpp ****     while(*(char*)CONSOLE_STATUS & (char)CONSOLE_RX_STATUS_BIT){
  91              		.loc 1 44 5 is_stmt 1
  92              		.loc 1 44 42
  93              		.loc 1 44 11 is_stmt 0
  94 0094 97070000 		la	a5,CONSOLE_STATUS
  94      83B70700 
  95 009c 83B70700 		ld	a5,0(a5)
  96 00a0 83C70700 		lbu	a5,0(a5)
  97              		.loc 1 44 42
  98 00a4 93F71700 		andi	a5,a5,1
  99 00a8 638E0704 		beqz	a5,.L5
 100              	.LBB12:
  45:src/kConsole.cpp **** 
  46:src/kConsole.cpp ****         if((tailIB + 1)%capacity == headIB) return; //buffer full
 101              		.loc 1 46 9 is_stmt 1
 102              		.loc 1 46 20 is_stmt 0
 103 00ac 97060000 		lla	a3,.LANCHOR0
 103      93860600 
 104 00b4 03A7463F 		lw	a4,1012(a3)
 105 00b8 9B071700 		addiw	a5,a4,1
 106              		.loc 1 46 24
 107 00bc 17060000 		lw	a2,.LANCHOR1
 107      03260600 
 108 00c4 BBE7C702 		remw	a5,a5,a2
 109 00c8 1B860700 		sext.w	a2,a5
 110              		.loc 1 46 34
 111 00cc 83A6863F 		lw	a3,1016(a3)
 112              		.loc 1 46 9
 113 00d0 630AD602 		beq	a2,a3,.L5
  47:src/kConsole.cpp ****         char c = *(char*)CONSOLE_RX_DATA;
 114              		.loc 1 47 9 is_stmt 1
 115              		.loc 1 47 18 is_stmt 0
 116 00d4 97060000 		la	a3,CONSOLE_RX_DATA
 116      83B60600 
GAS LISTING /tmp/cc9bJXjD.s 			page 4


 117 00dc 83B60600 		ld	a3,0(a3)
 118              		.loc 1 47 14
 119 00e0 03C60600 		lbu	a2,0(a3)
 120              	.LVL3:
  48:src/kConsole.cpp ****         inputBuffer[tailIB] = c;
 121              		.loc 1 48 9 is_stmt 1
 122              		.loc 1 48 29 is_stmt 0
 123 00e4 97060000 		lla	a3,.LANCHOR0
 123      93860600 
 124 00ec 3387E600 		add	a4,a3,a4
 125 00f0 2300C740 		sb	a2,1024(a4)
  49:src/kConsole.cpp ****         tailIB = (tailIB + 1)%capacity;
 126              		.loc 1 49 9 is_stmt 1
 127              		.loc 1 49 16 is_stmt 0
 128 00f4 23AAF63E 		sw	a5,1012(a3)
  50:src/kConsole.cpp ****         received = true;
 129              		.loc 1 50 9 is_stmt 1
 130              		.loc 1 50 18 is_stmt 0
 131 00f8 93071000 		li	a5,1
 132 00fc 2388F63E 		sb	a5,1008(a3)
 133              	.LBE12:
  44:src/kConsole.cpp **** 
 134              		.loc 1 44 5
 135 0100 6FF05FF9 		j	.L7
 136              	.LVL4:
 137              	.L5:
  51:src/kConsole.cpp **** 
  52:src/kConsole.cpp ****     };
  53:src/kConsole.cpp **** 
  54:src/kConsole.cpp **** 
  55:src/kConsole.cpp **** }
 138              		.loc 1 55 1
 139 0104 03348100 		ld	s0,8(sp)
 140              		.cfi_restore 8
 141              		.cfi_def_cfa 2, 16
 142 0108 13010101 		addi	sp,sp,16
 143              		.cfi_def_cfa_offset 0
 144 010c 67800000 		jr	ra
 145              		.cfi_endproc
 146              	.LFE48:
 148              		.align	2
 149              		.globl	_ZN8kConsole5getIBEv
 151              	_ZN8kConsole5getIBEv:
 152              	.LFB49:
  56:src/kConsole.cpp **** 
  57:src/kConsole.cpp **** //sta ako je prazan
  58:src/kConsole.cpp **** char kConsole::getIB(){
 153              		.loc 1 58 23 is_stmt 1
 154              		.cfi_startproc
 155 0110 130101FF 		addi	sp,sp,-16
 156              		.cfi_def_cfa_offset 16
 157 0114 23348100 		sd	s0,8(sp)
 158              		.cfi_offset 8, -8
 159 0118 13040101 		addi	s0,sp,16
 160              		.cfi_def_cfa 8, 0
  59:src/kConsole.cpp **** 
  60:src/kConsole.cpp ****     if(headIB == tailIB) return 0;
GAS LISTING /tmp/cc9bJXjD.s 			page 5


 161              		.loc 1 60 5
 162              		.loc 1 60 15 is_stmt 0
 163 011c 17070000 		lla	a4,.LANCHOR0
 163      13070700 
 164 0124 8327873F 		lw	a5,1016(a4)
 165 0128 0327473F 		lw	a4,1012(a4)
 166              		.loc 1 60 5
 167 012c 638AE702 		beq	a5,a4,.L11
  61:src/kConsole.cpp ****     char res = inputBuffer[headIB];
 168              		.loc 1 61 5 is_stmt 1
 169              		.loc 1 61 10 is_stmt 0
 170 0130 17070000 		lla	a4,.LANCHOR0
 170      13070700 
 171 0138 B306F700 		add	a3,a4,a5
 172 013c 03C50640 		lbu	a0,1024(a3)
 173              	.LVL5:
  62:src/kConsole.cpp ****     headIB = (headIB + 1)% capacity;
 174              		.loc 1 62 5 is_stmt 1
 175              		.loc 1 62 22 is_stmt 0
 176 0140 9B871700 		addiw	a5,a5,1
 177              		.loc 1 62 26
 178 0144 97060000 		lw	a3,.LANCHOR1
 178      83A60600 
 179 014c BBE7D702 		remw	a5,a5,a3
 180              		.loc 1 62 12
 181 0150 232CF73E 		sw	a5,1016(a4)
  63:src/kConsole.cpp ****     return res;
 182              		.loc 1 63 5 is_stmt 1
 183              	.LVL6:
 184              	.L10:
  64:src/kConsole.cpp **** 
  65:src/kConsole.cpp **** }
 185              		.loc 1 65 1 is_stmt 0
 186 0154 03348100 		ld	s0,8(sp)
 187              		.cfi_remember_state
 188              		.cfi_restore 8
 189              		.cfi_def_cfa 2, 16
 190 0158 13010101 		addi	sp,sp,16
 191              		.cfi_def_cfa_offset 0
 192 015c 67800000 		jr	ra
 193              	.L11:
 194              		.cfi_restore_state
  60:src/kConsole.cpp ****     char res = inputBuffer[headIB];
 195              		.loc 1 60 33
 196 0160 13050000 		li	a0,0
 197 0164 6FF01FFF 		j	.L10
 198              		.cfi_endproc
 199              	.LFE49:
 201              		.align	2
 202              		.globl	_ZN8kConsole5putOBEc
 204              	_ZN8kConsole5putOBEc:
 205              	.LFB50:
  66:src/kConsole.cpp **** 
  67:src/kConsole.cpp **** 
  68:src/kConsole.cpp **** 
  69:src/kConsole.cpp **** //prob kad he puno
  70:src/kConsole.cpp **** int kConsole::putOB(char c) {
GAS LISTING /tmp/cc9bJXjD.s 			page 6


 206              		.loc 1 70 29 is_stmt 1
 207              		.cfi_startproc
 208              	.LVL7:
 209 0168 130101FF 		addi	sp,sp,-16
 210              		.cfi_def_cfa_offset 16
 211 016c 23348100 		sd	s0,8(sp)
 212              		.cfi_offset 8, -8
 213 0170 13040101 		addi	s0,sp,16
 214              		.cfi_def_cfa 8, 0
  71:src/kConsole.cpp **** 
  72:src/kConsole.cpp ****     if ((tailOB + 1)%capacity == headOB) return 1; //GRESKA : NEMA MESTA
 215              		.loc 1 72 5
 216              		.loc 1 72 17 is_stmt 0
 217 0174 97060000 		lla	a3,.LANCHOR0
 217      93860600 
 218 017c 03A74600 		lw	a4,4(a3)
 219 0180 9B071700 		addiw	a5,a4,1
 220              		.loc 1 72 21
 221 0184 17060000 		lw	a2,.LANCHOR1
 221      03260600 
 222 018c BBE7C702 		remw	a5,a5,a2
 223 0190 1B860700 		sext.w	a2,a5
 224              		.loc 1 72 31
 225 0194 83A60600 		lw	a3,0(a3)
 226              		.loc 1 72 5
 227 0198 6304D602 		beq	a2,a3,.L15
  73:src/kConsole.cpp ****     outputBuffer[tailOB] = c;
 228              		.loc 1 73 5 is_stmt 1
 229              		.loc 1 73 26 is_stmt 0
 230 019c 97060000 		lla	a3,.LANCHOR0
 230      93860600 
 231 01a4 3387E600 		add	a4,a3,a4
 232 01a8 2304A700 		sb	a0,8(a4)
  74:src/kConsole.cpp ****     tailOB = (tailOB + 1)%capacity;
 233              		.loc 1 74 5 is_stmt 1
 234              		.loc 1 74 12 is_stmt 0
 235 01ac 23A2F600 		sw	a5,4(a3)
  75:src/kConsole.cpp ****     return 0; //Stavili smo sve u redu !
 236              		.loc 1 75 5 is_stmt 1
 237              		.loc 1 75 12 is_stmt 0
 238 01b0 13050000 		li	a0,0
 239              	.LVL8:
 240              	.L14:
  76:src/kConsole.cpp **** }
 241              		.loc 1 76 1
 242 01b4 03348100 		ld	s0,8(sp)
 243              		.cfi_remember_state
 244              		.cfi_restore 8
 245              		.cfi_def_cfa 2, 16
 246 01b8 13010101 		addi	sp,sp,16
 247              		.cfi_def_cfa_offset 0
 248 01bc 67800000 		jr	ra
 249              	.LVL9:
 250              	.L15:
 251              		.cfi_restore_state
  72:src/kConsole.cpp ****     outputBuffer[tailOB] = c;
 252              		.loc 1 72 49
GAS LISTING /tmp/cc9bJXjD.s 			page 7


 253 01c0 13051000 		li	a0,1
 254              	.LVL10:
 255 01c4 6FF01FFF 		j	.L14
 256              		.cfi_endproc
 257              	.LFE50:
 259              		.align	2
 260              		.globl	_ZN8kConsole11removeFirstEv
 262              	_ZN8kConsole11removeFirstEv:
 263              	.LFB51:
  77:src/kConsole.cpp **** 
  78:src/kConsole.cpp **** TCB* kConsole::removeFirst()
  79:src/kConsole.cpp **** {
 264              		.loc 1 79 1 is_stmt 1
 265              		.cfi_startproc
 266 01c8 130101FF 		addi	sp,sp,-16
 267              		.cfi_def_cfa_offset 16
 268 01cc 23348100 		sd	s0,8(sp)
 269              		.cfi_offset 8, -8
 270 01d0 13040101 		addi	s0,sp,16
 271              		.cfi_def_cfa 8, 0
  80:src/kConsole.cpp ****     Node* old = head;
 272              		.loc 1 80 5
 273              		.loc 1 80 11 is_stmt 0
 274 01d4 97070000 		ld	a5,.LANCHOR0+2024
 274      83B70700 
 275              	.LVL11:
  81:src/kConsole.cpp ****     if(old != nullptr){
 276              		.loc 1 81 5 is_stmt 1
 277              	.LBB13:
 278 01dc 63840702 		beqz	a5,.L19
 279              	.LBB14:
  82:src/kConsole.cpp ****         TCB* thr = head->thr;
 280              		.loc 1 82 9
 281              		.loc 1 82 14 is_stmt 0
 282 01e0 03B50700 		ld	a0,0(a5)
 283              	.LVL12:
  83:src/kConsole.cpp ****         head = head->next;
 284              		.loc 1 83 9 is_stmt 1
 285              		.loc 1 83 22 is_stmt 0
 286 01e4 03B78700 		ld	a4,8(a5)
 287              		.loc 1 83 14
 288 01e8 97060000 		sd	a4,.LANCHOR0+2024,a3
 288      23B0E600 
  84:src/kConsole.cpp ****         old->thr = nullptr;
 289              		.loc 1 84 9 is_stmt 1
 290              		.loc 1 84 18 is_stmt 0
 291 01f0 23B00700 		sd	zero,0(a5)
  85:src/kConsole.cpp ****         old->next = nullptr;
 292              		.loc 1 85 9 is_stmt 1
 293              		.loc 1 85 19 is_stmt 0
 294 01f4 23B40700 		sd	zero,8(a5)
  86:src/kConsole.cpp ****         //delete old;
  87:src/kConsole.cpp ****         return thr;
 295              		.loc 1 87 9 is_stmt 1
 296              	.LVL13:
 297              	.L17:
 298              	.LBE14:
GAS LISTING /tmp/cc9bJXjD.s 			page 8


 299              	.LBE13:
  88:src/kConsole.cpp **** 
  89:src/kConsole.cpp ****     }else return nullptr;
  90:src/kConsole.cpp **** 
  91:src/kConsole.cpp **** }
 300              		.loc 1 91 1 is_stmt 0
 301 01f8 03348100 		ld	s0,8(sp)
 302              		.cfi_remember_state
 303              		.cfi_restore 8
 304              		.cfi_def_cfa 2, 16
 305 01fc 13010101 		addi	sp,sp,16
 306              		.cfi_def_cfa_offset 0
 307 0200 67800000 		jr	ra
 308              	.L19:
 309              		.cfi_restore_state
 310              	.LBB15:
  89:src/kConsole.cpp **** 
 311              		.loc 1 89 18
 312 0204 13850700 		mv	a0,a5
 313 0208 6FF01FFF 		j	.L17
 314              	.LBE15:
 315              		.cfi_endproc
 316              	.LFE51:
 318              		.align	2
 319              		.globl	_ZN8kConsole7addLastEP3TCB
 321              	_ZN8kConsole7addLastEP3TCB:
 322              	.LFB52:
  92:src/kConsole.cpp **** 
  93:src/kConsole.cpp **** void kConsole::addLast(TCB *thr)
  94:src/kConsole.cpp **** {
 323              		.loc 1 94 1 is_stmt 1
 324              		.cfi_startproc
 325              	.LVL14:
 326 020c 130101FE 		addi	sp,sp,-32
 327              		.cfi_def_cfa_offset 32
 328 0210 233C1100 		sd	ra,24(sp)
 329 0214 23388100 		sd	s0,16(sp)
 330 0218 23349100 		sd	s1,8(sp)
 331              		.cfi_offset 1, -8
 332              		.cfi_offset 8, -16
 333              		.cfi_offset 9, -24
 334 021c 13040102 		addi	s0,sp,32
 335              		.cfi_def_cfa 8, 0
 336 0220 93040500 		mv	s1,a0
  95:src/kConsole.cpp ****     //prazna lista
  96:src/kConsole.cpp ****     Node* n = new Node (thr);
 337              		.loc 1 96 5
 338              	.LVL15:
 339              	.LBB16:
 340              	.LBB17:
 341              		.file 2 "src/../h/kConsole.hpp"
   1:src/../h/kConsole.hpp **** //
   2:src/../h/kConsole.hpp **** // Created by os on 8/18/22.
   3:src/../h/kConsole.hpp **** //
   4:src/../h/kConsole.hpp **** 
   5:src/../h/kConsole.hpp **** #ifndef PROJECT_BASE_KCONSOLE_HPP
   6:src/../h/kConsole.hpp **** #define PROJECT_BASE_KCONSOLE_HPP
GAS LISTING /tmp/cc9bJXjD.s 			page 9


   7:src/../h/kConsole.hpp **** 
   8:src/../h/kConsole.hpp **** #include "../h/kSemaphore.hpp"
   9:src/../h/kConsole.hpp **** #include "../lib/hw.h"
  10:src/../h/kConsole.hpp **** 
  11:src/../h/kConsole.hpp **** 
  12:src/../h/kConsole.hpp **** class kConsole{
  13:src/../h/kConsole.hpp **** 
  14:src/../h/kConsole.hpp **** public:
  15:src/../h/kConsole.hpp **** 
  16:src/../h/kConsole.hpp ****     //static void console_handler(); //fja koja stavlja niti u Scheduler
  17:src/../h/kConsole.hpp **** 
  18:src/../h/kConsole.hpp ****     static void sendChars(); // fja koju izvrsava interna kernel nit;
  19:src/../h/kConsole.hpp **** 
  20:src/../h/kConsole.hpp ****     static void receiveChars();
  21:src/../h/kConsole.hpp **** 
  22:src/../h/kConsole.hpp ****     static kConsole* createConsole(){
  23:src/../h/kConsole.hpp ****          return new kConsole();
  24:src/../h/kConsole.hpp ****     }
  25:src/../h/kConsole.hpp **** 
  26:src/../h/kConsole.hpp ****     static int putOB(char c);
  27:src/../h/kConsole.hpp **** 
  28:src/../h/kConsole.hpp ****     static char getIB();
  29:src/../h/kConsole.hpp **** 
  30:src/../h/kConsole.hpp ****     static bool received;
  31:src/../h/kConsole.hpp **** 
  32:src/../h/kConsole.hpp ****     static int capacity;
  33:src/../h/kConsole.hpp **** 
  34:src/../h/kConsole.hpp ****     static char outputBuffer[1000];
  35:src/../h/kConsole.hpp ****     static int headOB, tailOB;
  36:src/../h/kConsole.hpp **** 
  37:src/../h/kConsole.hpp ****     static char inputBuffer[1000];
  38:src/../h/kConsole.hpp ****     static int headIB, tailIB;
  39:src/../h/kConsole.hpp **** 
  40:src/../h/kConsole.hpp ****     struct Node{
  41:src/../h/kConsole.hpp **** 
  42:src/../h/kConsole.hpp ****         TCB* thr;
  43:src/../h/kConsole.hpp ****         Node* next;
  44:src/../h/kConsole.hpp ****         explicit Node(TCB* thr) : thr(thr), next(nullptr){}
  45:src/../h/kConsole.hpp **** 
  46:src/../h/kConsole.hpp ****         void* operator new(size_t sz){
  47:src/../h/kConsole.hpp ****             sz = MemoryAllocator::allocateBytes(sz);
 342              		.loc 2 47 13
 343              	.LBE17:
 344              	.LBE16:
 345              		.file 3 "src/../h/../h/../h/MemoryAllocator.hpp"
   1:src/../h/../h/../h/MemoryAllocator.hpp **** //
   2:src/../h/../h/../h/MemoryAllocator.hpp **** // Created by os on 8/2/22.
   3:src/../h/../h/../h/MemoryAllocator.hpp **** //
   4:src/../h/../h/../h/MemoryAllocator.hpp **** 
   5:src/../h/../h/../h/MemoryAllocator.hpp **** #ifndef PROJECT_BASE_MEMORYALLOCATOR_HPP
   6:src/../h/../h/../h/MemoryAllocator.hpp **** #define PROJECT_BASE_MEMORYALLOCATOR_HPP
   7:src/../h/../h/../h/MemoryAllocator.hpp **** #include "../lib/hw.h"
   8:src/../h/../h/../h/MemoryAllocator.hpp **** 
   9:src/../h/../h/../h/MemoryAllocator.hpp **** struct BlockHeader{
  10:src/../h/../h/../h/MemoryAllocator.hpp ****     BlockHeader* prev, *next;
  11:src/../h/../h/../h/MemoryAllocator.hpp ****     size_t size;
  12:src/../h/../h/../h/MemoryAllocator.hpp **** };
GAS LISTING /tmp/cc9bJXjD.s 			page 10


  13:src/../h/../h/../h/MemoryAllocator.hpp **** 
  14:src/../h/../h/../h/MemoryAllocator.hpp **** //sluzi da bih znala koliko mem da oslobodim sa free
  15:src/../h/../h/../h/MemoryAllocator.hpp **** struct HiddenHeader{
  16:src/../h/../h/../h/MemoryAllocator.hpp ****     size_t size;
  17:src/../h/../h/../h/MemoryAllocator.hpp **** };
  18:src/../h/../h/../h/MemoryAllocator.hpp **** 
  19:src/../h/../h/../h/MemoryAllocator.hpp **** class MemoryAllocator {
  20:src/../h/../h/../h/MemoryAllocator.hpp **** 
  21:src/../h/../h/../h/MemoryAllocator.hpp **** public:
  22:src/../h/../h/../h/MemoryAllocator.hpp **** 
  23:src/../h/../h/../h/MemoryAllocator.hpp ****     static void* kmalloc(size_t);
  24:src/../h/../h/../h/MemoryAllocator.hpp **** 
  25:src/../h/../h/../h/MemoryAllocator.hpp ****     static int kfree (void* addr);
  26:src/../h/../h/../h/MemoryAllocator.hpp **** 
  27:src/../h/../h/../h/MemoryAllocator.hpp ****    static BlockHeader* freeMemHead;
  28:src/../h/../h/../h/MemoryAllocator.hpp **** 
  29:src/../h/../h/../h/MemoryAllocator.hpp ****    static void* hStart;
  30:src/../h/../h/../h/MemoryAllocator.hpp **** 
  31:src/../h/../h/../h/MemoryAllocator.hpp ****    static void* hEnd;
  32:src/../h/../h/../h/MemoryAllocator.hpp **** 
  33:src/../h/../h/../h/MemoryAllocator.hpp ****    static uint64 allocateBytes(size_t size){ return (size - 1)/MEM_BLOCK_SIZE + 1; };
 346              		.loc 3 33 46
 347              	.LBB19:
 348              	.LBB18:
  48:src/../h/kConsole.hpp ****             return MemoryAllocator::kmalloc(sz);
 349              		.loc 2 48 13
 350              		.loc 2 48 44 is_stmt 0
 351 0224 13051000 		li	a0,1
 352              	.LVL16:
 353 0228 97000000 		call	_ZN15MemoryAllocator7kmallocEm@plt
 353      E7800000 
 354              	.LVL17:
 355              	.LBE18:
 356              	.LBE19:
 357              	.LBB20:
 358              	.LBB21:
  44:src/../h/kConsole.hpp **** 
 359              		.loc 2 44 57
 360 0230 23309500 		sd	s1,0(a0)
 361 0234 23340500 		sd	zero,8(a0)
 362              	.LVL18:
 363              	.LBE21:
 364              	.LBE20:
  97:src/kConsole.cpp ****     if (head == nullptr){
 365              		.loc 1 97 5 is_stmt 1
 366              		.loc 1 97 14 is_stmt 0
 367 0238 97070000 		ld	a5,.LANCHOR0+2024
 367      83B70700 
 368              		.loc 1 97 5
 369 0240 63860702 		beqz	a5,.L25
  98:src/kConsole.cpp ****         head = tail = n;
  99:src/kConsole.cpp **** 
 100:src/kConsole.cpp ****     }else{
 101:src/kConsole.cpp ****         tail->next = n;
 370              		.loc 1 101 9 is_stmt 1
 371              		.loc 1 101 15 is_stmt 0
 372 0244 97070000 		lla	a5,.LANCHOR0
GAS LISTING /tmp/cc9bJXjD.s 			page 11


 372      93870700 
 373 024c 03B7077F 		ld	a4,2032(a5)
 374              		.loc 1 101 20
 375 0250 2334A700 		sd	a0,8(a4)
 102:src/kConsole.cpp ****         tail = n;
 376              		.loc 1 102 9 is_stmt 1
 377              		.loc 1 102 14 is_stmt 0
 378 0254 23B8A77E 		sd	a0,2032(a5)
 379              	.L21:
 103:src/kConsole.cpp ****     }
 104:src/kConsole.cpp **** }
 380              		.loc 1 104 1
 381 0258 83308101 		ld	ra,24(sp)
 382              		.cfi_remember_state
 383              		.cfi_restore 1
 384 025c 03340101 		ld	s0,16(sp)
 385              		.cfi_restore 8
 386              		.cfi_def_cfa 2, 32
 387 0260 83348100 		ld	s1,8(sp)
 388              		.cfi_restore 9
 389              	.LVL19:
 390 0264 13010102 		addi	sp,sp,32
 391              		.cfi_def_cfa_offset 0
 392 0268 67800000 		jr	ra
 393              	.LVL20:
 394              	.L25:
 395              		.cfi_restore_state
  98:src/kConsole.cpp **** 
 396              		.loc 1 98 9 is_stmt 1
  98:src/kConsole.cpp **** 
 397              		.loc 1 98 21 is_stmt 0
 398 026c 97070000 		lla	a5,.LANCHOR0
 398      93870700 
 399 0274 23B8A77E 		sd	a0,2032(a5)
  98:src/kConsole.cpp **** 
 400              		.loc 1 98 14
 401 0278 23B4A77E 		sd	a0,2024(a5)
 402 027c 6FF0DFFD 		j	.L21
 403              		.cfi_endproc
 404              	.LFE52:
 406              		.globl	_ZN8kConsole8receivedE
 407              		.globl	_ZN8kConsole4tailE
 408              		.globl	_ZN8kConsole4headE
 409              		.globl	_ZN8kConsole11inputBufferE
 410              		.globl	_ZN8kConsole6tailIBE
 411              		.globl	_ZN8kConsole6headIBE
 412              		.globl	_ZN8kConsole12outputBufferE
 413              		.globl	_ZN8kConsole6tailOBE
 414              		.globl	_ZN8kConsole6headOBE
 415              		.globl	_ZN8kConsole8capacityE
 416              		.data
 417              		.align	2
 418              		.set	.LANCHOR1,. + 0
 421              	_ZN8kConsole8capacityE:
 422 0000 E8030000 		.word	1000
 423              		.bss
 424              		.align	3
GAS LISTING /tmp/cc9bJXjD.s 			page 12


 425              		.set	.LANCHOR0,. + 0
 428              	_ZN8kConsole6headOBE:
 429 0000 00000000 		.zero	4
 432              	_ZN8kConsole6tailOBE:
 433 0004 00000000 		.zero	4
 436              	_ZN8kConsole12outputBufferE:
 437 0008 00000000 		.zero	1000
 437      00000000 
 437      00000000 
 437      00000000 
 437      00000000 
 440              	_ZN8kConsole8receivedE:
 441 03f0 00       		.zero	1
 442 03f1 000000   		.zero	3
 445              	_ZN8kConsole6tailIBE:
 446 03f4 00000000 		.zero	4
 449              	_ZN8kConsole6headIBE:
 450 03f8 00000000 		.zero	4
 451 03fc 00000000 		.zero	4
 454              	_ZN8kConsole11inputBufferE:
 455 0400 00000000 		.zero	1000
 455      00000000 
 455      00000000 
 455      00000000 
 455      00000000 
 458              	_ZN8kConsole4headE:
 459 07e8 00000000 		.zero	8
 459      00000000 
 462              	_ZN8kConsole4tailE:
 463 07f0 00000000 		.zero	8
 463      00000000 
 464              		.text
 465              	.Letext0:
 466              		.file 4 "src/../h/../h/../lib/hw.h"
 467              		.file 5 "src/../h/../h/TCB.hpp"
 468              		.file 6 "src/../h/../h/../h/syscall_c.h"
GAS LISTING /tmp/cc9bJXjD.s 			page 13

