GAS LISTING /tmp/cczNdsXc.s 			page 1


   1              		.file	"kSemaphore.cpp"
   2              		.option pic
   3              		.option norelax
   4              		.text
   5              	.Ltext0:
   6              		.align	2
   7              		.globl	_ZN10kSemaphore5blockEv
   9              	_ZN10kSemaphore5blockEv:
  10              	.LFB44:
  11              		.file 1 "src/kSemaphore.cpp"
   1:src/kSemaphore.cpp **** //
   2:src/kSemaphore.cpp **** // Created by os on 8/13/22.
   3:src/kSemaphore.cpp **** //
   4:src/kSemaphore.cpp **** 
   5:src/kSemaphore.cpp **** #include "../h/kSemaphore.hpp"
   6:src/kSemaphore.cpp **** 
   7:src/kSemaphore.cpp **** 
   8:src/kSemaphore.cpp **** kSemaphore* kSemaphore::createSemaphore(signed init) {
   9:src/kSemaphore.cpp **** 
  10:src/kSemaphore.cpp ****     return new kSemaphore(init);
  11:src/kSemaphore.cpp **** }
  12:src/kSemaphore.cpp **** 
  13:src/kSemaphore.cpp **** int kSemaphore::wait(){
  14:src/kSemaphore.cpp **** 
  15:src/kSemaphore.cpp ****     if (opened){
  16:src/kSemaphore.cpp ****         if(--val < 0) {
  17:src/kSemaphore.cpp ****             block();
  18:src/kSemaphore.cpp ****             return 3;
  19:src/kSemaphore.cpp ****         }
  20:src/kSemaphore.cpp ****         return 0;
  21:src/kSemaphore.cpp ****     }
  22:src/kSemaphore.cpp ****     return 1;
  23:src/kSemaphore.cpp **** }
  24:src/kSemaphore.cpp **** 
  25:src/kSemaphore.cpp **** int kSemaphore::signal(){
  26:src/kSemaphore.cpp **** 
  27:src/kSemaphore.cpp ****     if (opened){
  28:src/kSemaphore.cpp ****         if(++val <= 0) {
  29:src/kSemaphore.cpp ****             unblock();
  30:src/kSemaphore.cpp ****             return 3;
  31:src/kSemaphore.cpp ****         }
  32:src/kSemaphore.cpp ****         return 0;
  33:src/kSemaphore.cpp **** 
  34:src/kSemaphore.cpp ****     }
  35:src/kSemaphore.cpp ****     return 1;
  36:src/kSemaphore.cpp **** 
  37:src/kSemaphore.cpp **** };
  38:src/kSemaphore.cpp **** 
  39:src/kSemaphore.cpp **** void kSemaphore::block(){
  12              		.loc 1 39 25
  13              		.cfi_startproc
  14              	.LVL0:
  15 0000 130101FE 		addi	sp,sp,-32
  16              		.cfi_def_cfa_offset 32
  17 0004 233C1100 		sd	ra,24(sp)
  18 0008 23388100 		sd	s0,16(sp)
  19 000c 23349100 		sd	s1,8(sp)
GAS LISTING /tmp/cczNdsXc.s 			page 2


  20 0010 23302101 		sd	s2,0(sp)
  21              		.cfi_offset 1, -8
  22              		.cfi_offset 8, -16
  23              		.cfi_offset 9, -24
  24              		.cfi_offset 18, -32
  25 0014 13040102 		addi	s0,sp,32
  26              		.cfi_def_cfa 8, 0
  27 0018 93040500 		mv	s1,a0
  40:src/kSemaphore.cpp **** 
  41:src/kSemaphore.cpp ****     TCB* old = TCB::running;
  28              		.loc 1 41 5
  29              		.loc 1 41 10 is_stmt 0
  30 001c 97070000 		la	a5,_ZN3TCB7runningE
  30      83B70700 
  31 0024 03B90700 		ld	s2,0(a5)
  32              	.LVL1:
  42:src/kSemaphore.cpp ****     old->setBlocked(true);
  33              		.loc 1 42 5 is_stmt 1
  34              	.LBB40:
  35              	.LBB41:
  36              		.file 2 "src/../h/TCB.hpp"
   1:src/../h/TCB.hpp **** //
   2:src/../h/TCB.hpp **** // Created by os on 8/6/22.
   3:src/../h/TCB.hpp **** //
   4:src/../h/TCB.hpp **** 
   5:src/../h/TCB.hpp **** #ifndef PROJECT_BASE_TCB_HPP
   6:src/../h/TCB.hpp **** #define PROJECT_BASE_TCB_HPP
   7:src/../h/TCB.hpp **** 
   8:src/../h/TCB.hpp **** 
   9:src/../h/TCB.hpp **** #include "../lib/hw.h"
  10:src/../h/TCB.hpp **** #include "../h/Scheduler.hpp"
  11:src/../h/TCB.hpp **** #include "../h/MemoryAllocator.hpp"
  12:src/../h/TCB.hpp **** #include "../h/syscall_c.h"
  13:src/../h/TCB.hpp **** 
  14:src/../h/TCB.hpp **** 
  15:src/../h/TCB.hpp **** 
  16:src/../h/TCB.hpp **** 
  17:src/../h/TCB.hpp **** class TCB {
  18:src/../h/TCB.hpp **** 
  19:src/../h/TCB.hpp **** public:
  20:src/../h/TCB.hpp **** 
  21:src/../h/TCB.hpp ****     //~TCB(){ MemoryAllocator::kfree(stack);}; // VRATI SE NA OVO
  22:src/../h/TCB.hpp **** 
  23:src/../h/TCB.hpp ****     bool isFinished() const { return finished; }
  24:src/../h/TCB.hpp **** 
  25:src/../h/TCB.hpp ****     bool isBlocked() const { return blocked; }
  26:src/../h/TCB.hpp **** 
  27:src/../h/TCB.hpp ****     bool isAsleep() const { return asleep; }
  28:src/../h/TCB.hpp **** 
  29:src/../h/TCB.hpp ****     bool isKernelThread() const { return kernelThreadFlag; }
  30:src/../h/TCB.hpp **** 
  31:src/../h/TCB.hpp ****     bool isWaitingForInput() const { return waitingForInput; }
  32:src/../h/TCB.hpp **** 
  33:src/../h/TCB.hpp ****     void setFinished(bool value) { finished = value; }
  34:src/../h/TCB.hpp **** 
  35:src/../h/TCB.hpp ****     void setBlocked(bool value) { blocked = value; }
  37              		.loc 2 35 35
GAS LISTING /tmp/cczNdsXc.s 			page 3


  38              		.loc 2 35 43 is_stmt 0
  39 0028 93071000 		li	a5,1
  40 002c A308F902 		sb	a5,49(s2)
  41              	.LVL2:
  42              	.LBE41:
  43              	.LBE40:
  43:src/kSemaphore.cpp ****     numOfBlocked++;
  44              		.loc 1 43 5 is_stmt 1
  45 0030 83278501 		lw	a5,24(a0)
  46              		.loc 1 43 17 is_stmt 0
  47 0034 9B871700 		addiw	a5,a5,1
  48 0038 232CF500 		sw	a5,24(a0)
  44:src/kSemaphore.cpp ****     blocked.addLast(old);
  49              		.loc 1 44 5 is_stmt 1
  50              	.LVL3:
  51              		.file 3 "src/../h/../h/MemoryAllocator.hpp"
   1:src/../h/../h/MemoryAllocator.hpp **** //
   2:src/../h/../h/MemoryAllocator.hpp **** // Created by os on 8/2/22.
   3:src/../h/../h/MemoryAllocator.hpp **** //
   4:src/../h/../h/MemoryAllocator.hpp **** 
   5:src/../h/../h/MemoryAllocator.hpp **** #ifndef PROJECT_BASE_MEMORYALLOCATOR_HPP
   6:src/../h/../h/MemoryAllocator.hpp **** #define PROJECT_BASE_MEMORYALLOCATOR_HPP
   7:src/../h/../h/MemoryAllocator.hpp **** #include "../lib/hw.h"
   8:src/../h/../h/MemoryAllocator.hpp **** 
   9:src/../h/../h/MemoryAllocator.hpp **** struct BlockHeader{
  10:src/../h/../h/MemoryAllocator.hpp ****     BlockHeader* prev, *next;
  11:src/../h/../h/MemoryAllocator.hpp ****     size_t size;
  12:src/../h/../h/MemoryAllocator.hpp **** };
  13:src/../h/../h/MemoryAllocator.hpp **** 
  14:src/../h/../h/MemoryAllocator.hpp **** //sluzi da bih znala koliko mem da oslobodim sa free
  15:src/../h/../h/MemoryAllocator.hpp **** struct HiddenHeader{
  16:src/../h/../h/MemoryAllocator.hpp ****     size_t size;
  17:src/../h/../h/MemoryAllocator.hpp **** };
  18:src/../h/../h/MemoryAllocator.hpp **** 
  19:src/../h/../h/MemoryAllocator.hpp **** class MemoryAllocator {
  20:src/../h/../h/MemoryAllocator.hpp **** 
  21:src/../h/../h/MemoryAllocator.hpp **** public:
  22:src/../h/../h/MemoryAllocator.hpp **** 
  23:src/../h/../h/MemoryAllocator.hpp ****     static void* kmalloc(size_t);
  24:src/../h/../h/MemoryAllocator.hpp **** 
  25:src/../h/../h/MemoryAllocator.hpp ****     static int kfree (void* addr);
  26:src/../h/../h/MemoryAllocator.hpp **** 
  27:src/../h/../h/MemoryAllocator.hpp ****    static BlockHeader* freeMemHead;
  28:src/../h/../h/MemoryAllocator.hpp **** 
  29:src/../h/../h/MemoryAllocator.hpp ****    static void* hStart;
  30:src/../h/../h/MemoryAllocator.hpp **** 
  31:src/../h/../h/MemoryAllocator.hpp ****    static void* hEnd;
  32:src/../h/../h/MemoryAllocator.hpp **** 
  33:src/../h/../h/MemoryAllocator.hpp ****    static uint64 allocateBytes(size_t size){ return (size - 1)/MEM_BLOCK_SIZE + 1; };
  52              		.loc 3 33 46
  53              	.LBB42:
  54              	.LBB43:
  55              	.LBB44:
  56              	.LBB45:
  57              		.file 4 "src/../h/list.hpp"
   1:src/../h/list.hpp **** //
   2:src/../h/list.hpp **** // Created by marko on 20.4.22..
GAS LISTING /tmp/cczNdsXc.s 			page 4


   3:src/../h/list.hpp **** //
   4:src/../h/list.hpp **** 
   5:src/../h/list.hpp **** #ifndef OS1_VEZBE07_RISCV_CONTEXT_SWITCH_2_INTERRUPT_LIST_HPP
   6:src/../h/list.hpp **** #define OS1_VEZBE07_RISCV_CONTEXT_SWITCH_2_INTERRUPT_LIST_HPP
   7:src/../h/list.hpp **** 
   8:src/../h/list.hpp **** #include "../lib/hw.h"
   9:src/../h/list.hpp **** #include "../h/MemoryAllocator.hpp"
  10:src/../h/list.hpp **** template<typename T>
  11:src/../h/list.hpp **** class List
  12:src/../h/list.hpp **** {
  13:src/../h/list.hpp **** private:
  14:src/../h/list.hpp ****     struct Elem
  15:src/../h/list.hpp ****     {
  16:src/../h/list.hpp ****         T *data;
  17:src/../h/list.hpp ****         Elem *next;
  18:src/../h/list.hpp **** 
  19:src/../h/list.hpp ****         Elem(T *data, Elem *next) : data(data), next(next) {}
  20:src/../h/list.hpp **** 
  21:src/../h/list.hpp ****         void* operator new (size_t n){
  22:src/../h/list.hpp **** 
  23:src/../h/list.hpp ****             n = MemoryAllocator::allocateBytes(n);
  24:src/../h/list.hpp **** 
  25:src/../h/list.hpp ****             return MemoryAllocator::kmalloc(n);
  58              		.loc 4 25 44 is_stmt 0
  59 003c 13051000 		li	a0,1
  60              	.LVL4:
  61 0040 97000000 		call	_ZN15MemoryAllocator7kmallocEm@plt
  61      E7800000 
  62              	.LVL5:
  63              	.LBE45:
  64              	.LBE44:
  65              	.LBB46:
  66              	.LBB47:
  19:src/../h/list.hpp **** 
  67              		.loc 4 19 58
  68 0048 23302501 		sd	s2,0(a0)
  69 004c 23340500 		sd	zero,8(a0)
  70              	.LVL6:
  71              	.LBE47:
  72              	.LBE46:
  26:src/../h/list.hpp ****         };
  27:src/../h/list.hpp **** 
  28:src/../h/list.hpp ****         void operator delete (void* p) noexcept{
  29:src/../h/list.hpp **** 
  30:src/../h/list.hpp ****             MemoryAllocator::kfree(p);
  31:src/../h/list.hpp ****         } ;
  32:src/../h/list.hpp **** 
  33:src/../h/list.hpp ****     };
  34:src/../h/list.hpp **** 
  35:src/../h/list.hpp ****     Elem *head, *tail;
  36:src/../h/list.hpp **** 
  37:src/../h/list.hpp **** public:
  38:src/../h/list.hpp ****     List() : head(0), tail(0) {}
  39:src/../h/list.hpp **** 
  40:src/../h/list.hpp ****     List(const List<T> &) = delete;
  41:src/../h/list.hpp **** 
  42:src/../h/list.hpp ****     List<T> &operator=(const List<T> &) = delete;
GAS LISTING /tmp/cczNdsXc.s 			page 5


  43:src/../h/list.hpp **** 
  44:src/../h/list.hpp ****     void addFirst(T *data)
  45:src/../h/list.hpp ****     {
  46:src/../h/list.hpp ****         Elem *elem = new Elem(data, head);
  47:src/../h/list.hpp ****         head = elem;
  48:src/../h/list.hpp ****         if (!tail) { tail = head; }
  49:src/../h/list.hpp ****     }
  50:src/../h/list.hpp **** 
  51:src/../h/list.hpp ****     void addLast(T *data)
  52:src/../h/list.hpp ****     {
  53:src/../h/list.hpp ****         Elem *elem = new Elem(data, 0);
  54:src/../h/list.hpp ****         if (tail)
  73              		.loc 4 54 13
  74 0050 83B70401 		ld	a5,16(s1)
  75              		.loc 4 54 9
  76 0054 63860702 		beqz	a5,.L2
  55:src/../h/list.hpp ****         {
  56:src/../h/list.hpp ****             tail->next = elem;
  77              		.loc 4 56 13
  78 0058 23B4A700 		sd	a0,8(a5)
  57:src/../h/list.hpp ****             tail = elem;
  79              		.loc 4 57 13
  80 005c 23B8A400 		sd	a0,16(s1)
  81              	.L3:
  82              	.LVL7:
  83              	.LBE43:
  84              	.LBE42:
  45:src/kSemaphore.cpp ****     TCB::dispatch();
  85              		.loc 1 45 5 is_stmt 1
  86              		.loc 1 45 18 is_stmt 0
  87 0060 97000000 		call	_ZN3TCB8dispatchEv@plt
  87      E7800000 
  88              	.LVL8:
  46:src/kSemaphore.cpp **** }
  89              		.loc 1 46 1
  90 0068 83308101 		ld	ra,24(sp)
  91              		.cfi_remember_state
  92              		.cfi_restore 1
  93 006c 03340101 		ld	s0,16(sp)
  94              		.cfi_restore 8
  95              		.cfi_def_cfa 2, 32
  96 0070 83348100 		ld	s1,8(sp)
  97              		.cfi_restore 9
  98              	.LVL9:
  99 0074 03390100 		ld	s2,0(sp)
 100              		.cfi_restore 18
 101              	.LVL10:
 102 0078 13010102 		addi	sp,sp,32
 103              		.cfi_def_cfa_offset 0
 104 007c 67800000 		jr	ra
 105              	.LVL11:
 106              	.L2:
 107              		.cfi_restore_state
 108              	.LBB49:
 109              	.LBB48:
  58:src/../h/list.hpp ****         } else
  59:src/../h/list.hpp ****         {
GAS LISTING /tmp/cczNdsXc.s 			page 6


  60:src/../h/list.hpp ****             head = tail = elem;
 110              		.loc 4 60 13
 111 0080 23B8A400 		sd	a0,16(s1)
 112 0084 23B4A400 		sd	a0,8(s1)
 113 0088 6FF09FFD 		j	.L3
 114              	.LBE48:
 115              	.LBE49:
 116              		.cfi_endproc
 117              	.LFE44:
 119              		.align	2
 120              		.globl	_ZN10kSemaphore4waitEv
 122              	_ZN10kSemaphore4waitEv:
 123              	.LFB42:
  13:src/kSemaphore.cpp **** 
 124              		.loc 1 13 23 is_stmt 1
 125              		.cfi_startproc
 126              	.LVL12:
  15:src/kSemaphore.cpp ****         if(--val < 0) {
 127              		.loc 1 15 5
  15:src/kSemaphore.cpp ****         if(--val < 0) {
 128              		.loc 1 15 9 is_stmt 0
 129 008c 83474500 		lbu	a5,4(a0)
  15:src/kSemaphore.cpp ****         if(--val < 0) {
 130              		.loc 1 15 5
 131 0090 63860704 		beqz	a5,.L7
  16:src/kSemaphore.cpp ****             block();
 132              		.loc 1 16 9 is_stmt 1
  16:src/kSemaphore.cpp ****             block();
 133              		.loc 1 16 14 is_stmt 0
 134 0094 83270500 		lw	a5,0(a0)
  16:src/kSemaphore.cpp ****             block();
 135              		.loc 1 16 12
 136 0098 9B87F7FF 		addiw	a5,a5,-1
  16:src/kSemaphore.cpp ****             block();
 137              		.loc 1 16 18
 138 009c 2320F500 		sw	a5,0(a0)
  16:src/kSemaphore.cpp ****             block();
 139              		.loc 1 16 9
 140 00a0 13970702 		slli	a4,a5,32
 141 00a4 63460700 		bltz	a4,.L13
  20:src/kSemaphore.cpp ****     }
 142              		.loc 1 20 16
 143 00a8 13050000 		li	a0,0
 144              	.LVL13:
  23:src/kSemaphore.cpp **** 
 145              		.loc 1 23 1
 146 00ac 67800000 		ret
 147              	.LVL14:
 148              	.L13:
  13:src/kSemaphore.cpp **** 
 149              		.loc 1 13 23
 150 00b0 130101FF 		addi	sp,sp,-16
 151              		.cfi_def_cfa_offset 16
 152 00b4 23341100 		sd	ra,8(sp)
 153 00b8 23308100 		sd	s0,0(sp)
 154              		.cfi_offset 1, -8
 155              		.cfi_offset 8, -16
GAS LISTING /tmp/cczNdsXc.s 			page 7


 156 00bc 13040101 		addi	s0,sp,16
 157              		.cfi_def_cfa 8, 0
  17:src/kSemaphore.cpp ****             return 3;
 158              		.loc 1 17 13 is_stmt 1
  17:src/kSemaphore.cpp ****             return 3;
 159              		.loc 1 17 18 is_stmt 0
 160 00c0 97000000 		call	_ZN10kSemaphore5blockEv
 160      E7800000 
 161              	.LVL15:
  18:src/kSemaphore.cpp ****         }
 162              		.loc 1 18 13 is_stmt 1
  18:src/kSemaphore.cpp ****         }
 163              		.loc 1 18 20 is_stmt 0
 164 00c8 13053000 		li	a0,3
  23:src/kSemaphore.cpp **** 
 165              		.loc 1 23 1
 166 00cc 83308100 		ld	ra,8(sp)
 167              		.cfi_restore 1
 168 00d0 03340100 		ld	s0,0(sp)
 169              		.cfi_restore 8
 170              		.cfi_def_cfa 2, 16
 171 00d4 13010101 		addi	sp,sp,16
 172              		.cfi_def_cfa_offset 0
 173 00d8 67800000 		jr	ra
 174              	.LVL16:
 175              	.L7:
  22:src/kSemaphore.cpp **** }
 176              		.loc 1 22 12
 177 00dc 13051000 		li	a0,1
 178              	.LVL17:
 179 00e0 67800000 		ret
 180              		.cfi_endproc
 181              	.LFE42:
 183              		.align	2
 184              		.globl	_ZN10kSemaphore7unblockEv
 186              	_ZN10kSemaphore7unblockEv:
 187              	.LFB45:
  47:src/kSemaphore.cpp **** 
  48:src/kSemaphore.cpp **** void kSemaphore::unblock(){
 188              		.loc 1 48 27 is_stmt 1
 189              		.cfi_startproc
 190              		.cfi_personality 0x9b,DW.ref.__gxx_personality_v0
 191              		.cfi_lsda 0x1b,.LLSDA45
 192              	.LVL18:
 193 00e4 130101FE 		addi	sp,sp,-32
 194              		.cfi_def_cfa_offset 32
 195 00e8 233C1100 		sd	ra,24(sp)
 196 00ec 23388100 		sd	s0,16(sp)
 197 00f0 23349100 		sd	s1,8(sp)
 198 00f4 23302101 		sd	s2,0(sp)
 199              		.cfi_offset 1, -8
 200              		.cfi_offset 8, -16
 201              		.cfi_offset 9, -24
 202              		.cfi_offset 18, -32
 203 00f8 13040102 		addi	s0,sp,32
 204              		.cfi_def_cfa 8, 0
 205 00fc 93040500 		mv	s1,a0
GAS LISTING /tmp/cczNdsXc.s 			page 8


  49:src/kSemaphore.cpp **** 
  50:src/kSemaphore.cpp ****     TCB* thr = blocked.removeFirst();
 206              		.loc 1 50 5
 207              	.LVL19:
 208              	.LBB50:
 209              	.LBB51:
  61:src/../h/list.hpp ****         }
  62:src/../h/list.hpp ****     }
  63:src/../h/list.hpp **** 
  64:src/../h/list.hpp ****     T *removeFirst()
  65:src/../h/list.hpp ****     {
  66:src/../h/list.hpp ****         if (!head) { return 0; }
 210              		.loc 4 66 14 is_stmt 0
 211 0100 03358500 		ld	a0,8(a0)
 212              	.LVL20:
 213              		.loc 4 66 9
 214 0104 63000506 		beqz	a0,.L18
 215              	.LVL21:
  67:src/../h/list.hpp **** 
  68:src/../h/list.hpp ****         Elem *elem = head;
  69:src/../h/list.hpp ****         head = head->next;
 216              		.loc 4 69 22
 217 0108 83378500 		ld	a5,8(a0)
 218              		.loc 4 69 9
 219 010c 23B4F400 		sd	a5,8(s1)
  70:src/../h/list.hpp ****         if (!head) { tail = 0; }
 220              		.loc 4 70 9
 221 0110 63860704 		beqz	a5,.L20
 222              	.L16:
  71:src/../h/list.hpp **** 
  72:src/../h/list.hpp ****         T *ret = elem->data;
 223              		.loc 4 72 12
 224 0114 03390500 		ld	s2,0(a0)
 225              	.LVL22:
 226              	.LBB52:
 227              	.LBB53:
  30:src/../h/list.hpp ****         } ;
 228              		.loc 4 30 35
 229 0118 97000000 		call	_ZN15MemoryAllocator5kfreeEPv@plt
 229      E7800000 
 230              	.LVL23:
 231              	.L15:
 232              	.LBE53:
 233              	.LBE52:
 234              	.LBE51:
 235              	.LBE50:
  51:src/kSemaphore.cpp ****     thr->setBlocked(false);
 236              		.loc 1 51 5 is_stmt 1
 237              	.LBB55:
 238              	.LBB56:
 239              		.loc 2 35 35
 240              		.loc 2 35 43 is_stmt 0
 241 0120 A3080902 		sb	zero,49(s2)
 242              	.LVL24:
 243              	.LBE56:
 244              	.LBE55:
  52:src/kSemaphore.cpp ****     numOfBlocked = (numOfBlocked - 1 <= 0 )? 0: numOfBlocked - 1 ;
GAS LISTING /tmp/cczNdsXc.s 			page 9


 245              		.loc 1 52 5 is_stmt 1
 246              		.loc 1 52 21 is_stmt 0
 247 0124 03A78401 		lw	a4,24(s1)
 248              		.loc 1 52 44
 249 0128 93070700 		mv	a5,a4
 250 012c 6350E004 		blez	a4,.L21
 251              	.L17:
 252 0130 9B87F7FF 		addiw	a5,a5,-1
 253              		.loc 1 52 18
 254 0134 23ACF400 		sw	a5,24(s1)
  53:src/kSemaphore.cpp ****     Scheduler::put(thr);
 255              		.loc 1 53 5 is_stmt 1
 256              		.loc 1 53 19 is_stmt 0
 257 0138 13050900 		mv	a0,s2
 258              	.LEHB0:
 259 013c 97000000 		call	_ZN9Scheduler3putEP3TCB@plt
 259      E7800000 
 260              	.LVL25:
 261              	.LEHE0:
  54:src/kSemaphore.cpp **** }
 262              		.loc 1 54 1
 263 0144 83308101 		ld	ra,24(sp)
 264              		.cfi_remember_state
 265              		.cfi_restore 1
 266 0148 03340101 		ld	s0,16(sp)
 267              		.cfi_restore 8
 268              		.cfi_def_cfa 2, 32
 269 014c 83348100 		ld	s1,8(sp)
 270              		.cfi_restore 9
 271              	.LVL26:
 272 0150 03390100 		ld	s2,0(sp)
 273              		.cfi_restore 18
 274              	.LVL27:
 275 0154 13010102 		addi	sp,sp,32
 276              		.cfi_def_cfa_offset 0
 277 0158 67800000 		jr	ra
 278              	.LVL28:
 279              	.L20:
 280              		.cfi_restore_state
 281              	.LBB57:
 282              	.LBB54:
  70:src/../h/list.hpp **** 
 283              		.loc 4 70 22
 284 015c 23B80400 		sd	zero,16(s1)
 285 0160 6FF05FFB 		j	.L16
 286              	.LVL29:
 287              	.L18:
  66:src/../h/list.hpp **** 
 288              		.loc 4 66 29
 289 0164 13090500 		mv	s2,a0
 290 0168 6FF09FFB 		j	.L15
 291              	.LVL30:
 292              	.L21:
 293              	.LBE54:
 294              	.LBE57:
  52:src/kSemaphore.cpp ****     Scheduler::put(thr);
 295              		.loc 1 52 44
GAS LISTING /tmp/cczNdsXc.s 			page 10


 296 016c 93071000 		li	a5,1
 297 0170 6FF01FFC 		j	.L17
 298              		.cfi_endproc
 299              	.LFE45:
 300              		.globl	__gxx_personality_v0
 301              		.section	.gcc_except_table,"a",@progbits
 302              	.LLSDA45:
 303 0000 FF       		.byte	0xff
 304 0001 FF       		.byte	0xff
 305 0002 03       		.byte	0x3
 306 0003 0D       		.byte	0xd
 307 0004 00000000 		.4byte	.LEHB0-.LFB45
 308 0008 00000000 		.4byte	.LEHE0-.LEHB0
 309 000c 00000000 		.4byte	0
 310 0010 00       		.byte	0
 311              		.text
 313              		.align	2
 314              		.globl	_ZN10kSemaphore6signalEv
 316              	_ZN10kSemaphore6signalEv:
 317              	.LFB43:
  25:src/kSemaphore.cpp **** 
 318              		.loc 1 25 25 is_stmt 1
 319              		.cfi_startproc
 320              	.LVL31:
  27:src/kSemaphore.cpp ****         if(++val <= 0) {
 321              		.loc 1 27 5
  27:src/kSemaphore.cpp ****         if(++val <= 0) {
 322              		.loc 1 27 9 is_stmt 0
 323 0174 83474500 		lbu	a5,4(a0)
  27:src/kSemaphore.cpp ****         if(++val <= 0) {
 324              		.loc 1 27 5
 325 0178 63860704 		beqz	a5,.L24
  28:src/kSemaphore.cpp ****             unblock();
 326              		.loc 1 28 9 is_stmt 1
  28:src/kSemaphore.cpp ****             unblock();
 327              		.loc 1 28 14 is_stmt 0
 328 017c 83270500 		lw	a5,0(a0)
  28:src/kSemaphore.cpp ****             unblock();
 329              		.loc 1 28 12
 330 0180 9B871700 		addiw	a5,a5,1
 331 0184 1B870700 		sext.w	a4,a5
  28:src/kSemaphore.cpp ****             unblock();
 332              		.loc 1 28 18
 333 0188 2320F500 		sw	a5,0(a0)
  28:src/kSemaphore.cpp ****             unblock();
 334              		.loc 1 28 9
 335 018c 6356E000 		blez	a4,.L30
  32:src/kSemaphore.cpp **** 
 336              		.loc 1 32 16
 337 0190 13050000 		li	a0,0
 338              	.LVL32:
  37:src/kSemaphore.cpp **** 
 339              		.loc 1 37 1
 340 0194 67800000 		ret
 341              	.LVL33:
 342              	.L30:
  25:src/kSemaphore.cpp **** 
GAS LISTING /tmp/cczNdsXc.s 			page 11


 343              		.loc 1 25 25
 344 0198 130101FF 		addi	sp,sp,-16
 345              		.cfi_def_cfa_offset 16
 346 019c 23341100 		sd	ra,8(sp)
 347 01a0 23308100 		sd	s0,0(sp)
 348              		.cfi_offset 1, -8
 349              		.cfi_offset 8, -16
 350 01a4 13040101 		addi	s0,sp,16
 351              		.cfi_def_cfa 8, 0
  29:src/kSemaphore.cpp ****             return 3;
 352              		.loc 1 29 13 is_stmt 1
  29:src/kSemaphore.cpp ****             return 3;
 353              		.loc 1 29 20 is_stmt 0
 354 01a8 97000000 		call	_ZN10kSemaphore7unblockEv
 354      E7800000 
 355              	.LVL34:
  30:src/kSemaphore.cpp ****         }
 356              		.loc 1 30 13 is_stmt 1
  30:src/kSemaphore.cpp ****         }
 357              		.loc 1 30 20 is_stmt 0
 358 01b0 13053000 		li	a0,3
  37:src/kSemaphore.cpp **** 
 359              		.loc 1 37 1
 360 01b4 83308100 		ld	ra,8(sp)
 361              		.cfi_restore 1
 362 01b8 03340100 		ld	s0,0(sp)
 363              		.cfi_restore 8
 364              		.cfi_def_cfa 2, 16
 365 01bc 13010101 		addi	sp,sp,16
 366              		.cfi_def_cfa_offset 0
 367 01c0 67800000 		jr	ra
 368              	.LVL35:
 369              	.L24:
  35:src/kSemaphore.cpp **** 
 370              		.loc 1 35 12
 371 01c4 13051000 		li	a0,1
 372              	.LVL36:
 373 01c8 67800000 		ret
 374              		.cfi_endproc
 375              	.LFE43:
 377              		.align	2
 378              		.globl	_ZN10kSemaphorenwEm
 380              	_ZN10kSemaphorenwEm:
 381              	.LFB46:
  55:src/kSemaphore.cpp **** 
  56:src/kSemaphore.cpp **** void* kSemaphore::operator new (size_t n){
 382              		.loc 1 56 42 is_stmt 1
 383              		.cfi_startproc
 384              	.LVL37:
 385 01cc 130101FF 		addi	sp,sp,-16
 386              		.cfi_def_cfa_offset 16
 387 01d0 23341100 		sd	ra,8(sp)
 388 01d4 23308100 		sd	s0,0(sp)
 389              		.cfi_offset 1, -8
 390              		.cfi_offset 8, -16
 391 01d8 13040101 		addi	s0,sp,16
 392              		.cfi_def_cfa 8, 0
GAS LISTING /tmp/cczNdsXc.s 			page 12


  57:src/kSemaphore.cpp **** 
  58:src/kSemaphore.cpp ****     n = MemoryAllocator::allocateBytes(n);
 393              		.loc 1 58 5
 394              	.LVL38:
 395              	.LBB58:
 396              	.LBB59:
 397              		.loc 3 33 46
 398              		.loc 3 33 59 is_stmt 0
 399 01dc 1305F5FF 		addi	a0,a0,-1
 400              	.LVL39:
 401              		.loc 3 33 63
 402 01e0 13556500 		srli	a0,a0,6
 403              	.LVL40:
 404              	.LBE59:
 405              	.LBE58:
  59:src/kSemaphore.cpp **** 
  60:src/kSemaphore.cpp ****     return MemoryAllocator::kmalloc(n);
 406              		.loc 1 60 5 is_stmt 1
 407              		.loc 1 60 36 is_stmt 0
 408 01e4 13051500 		addi	a0,a0,1
 409              	.LVL41:
 410 01e8 97000000 		call	_ZN15MemoryAllocator7kmallocEm@plt
 410      E7800000 
 411              	.LVL42:
  61:src/kSemaphore.cpp **** }
 412              		.loc 1 61 1
 413 01f0 83308100 		ld	ra,8(sp)
 414              		.cfi_restore 1
 415 01f4 03340100 		ld	s0,0(sp)
 416              		.cfi_restore 8
 417              		.cfi_def_cfa 2, 16
 418 01f8 13010101 		addi	sp,sp,16
 419              		.cfi_def_cfa_offset 0
 420 01fc 67800000 		jr	ra
 421              		.cfi_endproc
 422              	.LFE46:
 424              		.align	2
 425              		.globl	_ZN10kSemaphore15createSemaphoreEi
 427              	_ZN10kSemaphore15createSemaphoreEi:
 428              	.LFB41:
   8:src/kSemaphore.cpp **** 
 429              		.loc 1 8 54 is_stmt 1
 430              		.cfi_startproc
 431              	.LVL43:
 432 0200 130101FE 		addi	sp,sp,-32
 433              		.cfi_def_cfa_offset 32
 434 0204 233C1100 		sd	ra,24(sp)
 435 0208 23388100 		sd	s0,16(sp)
 436 020c 23349100 		sd	s1,8(sp)
 437              		.cfi_offset 1, -8
 438              		.cfi_offset 8, -16
 439              		.cfi_offset 9, -24
 440 0210 13040102 		addi	s0,sp,32
 441              		.cfi_def_cfa 8, 0
 442 0214 93040500 		mv	s1,a0
  10:src/kSemaphore.cpp **** }
 443              		.loc 1 10 5
GAS LISTING /tmp/cczNdsXc.s 			page 13


  10:src/kSemaphore.cpp **** }
 444              		.loc 1 10 31 is_stmt 0
 445 0218 13050002 		li	a0,32
 446              	.LVL44:
 447 021c 97000000 		call	_ZN10kSemaphorenwEm
 447      E7800000 
 448              	.LVL45:
 449              	.LBB60:
 450              	.LBB61:
 451              	.LBB62:
 452              	.LBB63:
  38:src/../h/list.hpp **** 
 453              		.loc 4 38 29
 454 0224 23340500 		sd	zero,8(a0)
 455 0228 23380500 		sd	zero,16(a0)
 456              	.LVL46:
 457              	.LBE63:
 458              	.LBE62:
 459              		.file 5 "src/../h/kSemaphore.hpp"
   1:src/../h/kSemaphore.hpp **** //
   2:src/../h/kSemaphore.hpp **** // Created by os on 8/13/22.
   3:src/../h/kSemaphore.hpp **** //
   4:src/../h/kSemaphore.hpp **** 
   5:src/../h/kSemaphore.hpp **** #ifndef PROJECT_BASE_KSEMAPHORE_HPP
   6:src/../h/kSemaphore.hpp **** #define PROJECT_BASE_KSEMAPHORE_HPP
   7:src/../h/kSemaphore.hpp **** 
   8:src/../h/kSemaphore.hpp **** #include "list.hpp"
   9:src/../h/kSemaphore.hpp **** #include "TCB.hpp"
  10:src/../h/kSemaphore.hpp **** 
  11:src/../h/kSemaphore.hpp **** class kSemaphore{
  12:src/../h/kSemaphore.hpp **** 
  13:src/../h/kSemaphore.hpp **** public:
  14:src/../h/kSemaphore.hpp **** 
  15:src/../h/kSemaphore.hpp ****     static kSemaphore* createSemaphore(signed init);
  16:src/../h/kSemaphore.hpp **** 
  17:src/../h/kSemaphore.hpp ****     int wait();
  18:src/../h/kSemaphore.hpp ****     int signal();
  19:src/../h/kSemaphore.hpp ****     signed value() const { return val; }
  20:src/../h/kSemaphore.hpp **** 
  21:src/../h/kSemaphore.hpp ****     bool isOpen() const { return opened; }
  22:src/../h/kSemaphore.hpp ****     void setOpen( bool state ){ opened = state; }
  23:src/../h/kSemaphore.hpp **** 
  24:src/../h/kSemaphore.hpp ****     bool isBusy() const { return  numOfBlocked > 0; }
  25:src/../h/kSemaphore.hpp **** 
  26:src/../h/kSemaphore.hpp ****     void* operator new (size_t n);
  27:src/../h/kSemaphore.hpp ****     void operator delete (void* p) noexcept ;
  28:src/../h/kSemaphore.hpp **** 
  29:src/../h/kSemaphore.hpp ****     friend class Riscv;
  30:src/../h/kSemaphore.hpp **** 
  31:src/../h/kSemaphore.hpp **** 
  32:src/../h/kSemaphore.hpp **** 
  33:src/../h/kSemaphore.hpp **** protected:
  34:src/../h/kSemaphore.hpp ****     void block();
  35:src/../h/kSemaphore.hpp ****     void unblock();
  36:src/../h/kSemaphore.hpp **** 
  37:src/../h/kSemaphore.hpp **** private:
  38:src/../h/kSemaphore.hpp **** 
GAS LISTING /tmp/cczNdsXc.s 			page 14


  39:src/../h/kSemaphore.hpp ****     kSemaphore(signed init = 1){ val = init; opened = true; numOfBlocked = 0; };
 460              		.loc 5 39 34 is_stmt 1
 461              		.loc 5 39 38 is_stmt 0
 462 022c 23209500 		sw	s1,0(a0)
 463              		.loc 5 39 46 is_stmt 1
 464              		.loc 5 39 53 is_stmt 0
 465 0230 13071000 		li	a4,1
 466 0234 2302E500 		sb	a4,4(a0)
 467              		.loc 5 39 61 is_stmt 1
 468              		.loc 5 39 74 is_stmt 0
 469 0238 232C0500 		sw	zero,24(a0)
 470              	.LVL47:
 471              	.LBE61:
 472              	.LBE60:
  11:src/kSemaphore.cpp **** 
 473              		.loc 1 11 1
 474 023c 83308101 		ld	ra,24(sp)
 475              		.cfi_restore 1
 476 0240 03340101 		ld	s0,16(sp)
 477              		.cfi_restore 8
 478              		.cfi_def_cfa 2, 32
 479 0244 83348100 		ld	s1,8(sp)
 480              		.cfi_restore 9
 481 0248 13010102 		addi	sp,sp,32
 482              		.cfi_def_cfa_offset 0
 483 024c 67800000 		jr	ra
 484              		.cfi_endproc
 485              	.LFE41:
 487              		.align	2
 488              		.globl	_ZN10kSemaphoredlEPv
 490              	_ZN10kSemaphoredlEPv:
 491              	.LFB47:
  62:src/kSemaphore.cpp **** 
  63:src/kSemaphore.cpp **** 
  64:src/kSemaphore.cpp **** void kSemaphore::operator delete (void* p) noexcept
  65:src/kSemaphore.cpp **** {
 492              		.loc 1 65 1 is_stmt 1
 493              		.cfi_startproc
 494              		.cfi_personality 0x9b,DW.ref.__gxx_personality_v0
 495              		.cfi_lsda 0x1b,.LLSDA47
 496              	.LVL48:
 497 0250 130101FF 		addi	sp,sp,-16
 498              		.cfi_def_cfa_offset 16
 499 0254 23341100 		sd	ra,8(sp)
 500 0258 23308100 		sd	s0,0(sp)
 501              		.cfi_offset 1, -8
 502              		.cfi_offset 8, -16
 503 025c 13040101 		addi	s0,sp,16
 504              		.cfi_def_cfa 8, 0
  66:src/kSemaphore.cpp ****     MemoryAllocator::kfree(p);
 505              		.loc 1 66 5
 506              		.loc 1 66 27 is_stmt 0
 507 0260 97000000 		call	_ZN15MemoryAllocator5kfreeEPv@plt
 507      E7800000 
 508              	.LVL49:
  67:src/kSemaphore.cpp **** }
 509              		.loc 1 67 1
GAS LISTING /tmp/cczNdsXc.s 			page 15


 510 0268 83308100 		ld	ra,8(sp)
 511              		.cfi_restore 1
 512 026c 03340100 		ld	s0,0(sp)
 513              		.cfi_restore 8
 514              		.cfi_def_cfa 2, 16
 515 0270 13010101 		addi	sp,sp,16
 516              		.cfi_def_cfa_offset 0
 517 0274 67800000 		jr	ra
 518              		.cfi_endproc
 519              	.LFE47:
 520              		.section	.gcc_except_table
 521              	.LLSDA47:
 522 0011 FF       		.byte	0xff
 523 0012 FF       		.byte	0xff
 524 0013 03       		.byte	0x3
 525 0014 00       		.byte	0
 526              		.text
 528              	.Letext0:
 529              		.file 6 "src/../h/../lib/hw.h"
 530              		.file 7 "src/../h/../h/Scheduler.hpp"
 531              		.file 8 "src/../h/../h/syscall_c.h"
 4278              		.align	3
 4281              	DW.ref.__gxx_personality_v0:
 4282 0000 00000000 		.dword	__gxx_personality_v0
 4282      00000000 
 4283              		.ident	"GCC: (Ubuntu 9.4.0-1ubuntu1~20.04) 9.4.0"
 4284              		.section	.note.GNU-stack,"",@progbits
GAS LISTING /tmp/cczNdsXc.s 			page 16

