GAS LISTING /tmp/ccw1O1Kp.s 			page 1


   1              		.file	"setup.cpp"
   2              		.option pic
   3              		.option norelax
   4              		.text
   5              	.Ltext0:
   6              		.align	2
   7              		.globl	_Z9heapSetupv
   9              	_Z9heapSetupv:
  10              	.LFB1:
  11              		.file 1 "src/setup.cpp"
   1:src/setup.cpp **** //
   2:src/setup.cpp **** // Created by os on 8/4/22.
   3:src/setup.cpp **** //
   4:src/setup.cpp **** 
   5:src/setup.cpp **** #include "../h/setup.hpp"
   6:src/setup.cpp **** 
   7:src/setup.cpp **** //ovaj kod radi alignment u 1 linije --> promeni posle i pazi jer zaokruzuje na prvu vecu ili jedna
   8:src/setup.cpp **** //a =  (void*)((uint64(a) + uint64(MEM_BLOCK_SIZE) - 1) &~ uint64(MEM_BLOCK_SIZE - 1));
   9:src/setup.cpp **** 
  10:src/setup.cpp **** 
  11:src/setup.cpp **** int heapSetup() {
  12              		.loc 1 11 17
  13              		.cfi_startproc
  14 0000 130101FF 		addi	sp,sp,-16
  15              		.cfi_def_cfa_offset 16
  16 0004 23348100 		sd	s0,8(sp)
  17              		.cfi_offset 8, -8
  18 0008 13040101 		addi	s0,sp,16
  19              		.cfi_def_cfa 8, 0
  12:src/setup.cpp **** 
  13:src/setup.cpp ****     MemoryAllocator::hStart = (void*)((uint64(HEAP_START_ADDR) + uint64(MEM_BLOCK_SIZE) - 1) &~ uin
  20              		.loc 1 13 5
  21              		.loc 1 13 89 is_stmt 0
  22 000c 97070000 		la	a5,HEAP_START_ADDR
  22      83B70700 
  23 0014 83B70700 		ld	a5,0(a5)
  24 0018 9387F703 		addi	a5,a5,63
  25              		.loc 1 13 94
  26 001c 93F707FC 		andi	a5,a5,-64
  27              		.loc 1 13 29
  28 0020 17070000 		la	a4,_ZN15MemoryAllocator6hStartE
  28      03370700 
  29 0028 2330F700 		sd	a5,0(a4)
  14:src/setup.cpp ****     MemoryAllocator::hEnd = (void*)((uint64(HEAP_END_ADDR) + uint64(MEM_BLOCK_SIZE) - 1) &~ uint64(
  30              		.loc 1 14 5 is_stmt 1
  31              		.loc 1 14 85 is_stmt 0
  32 002c 17070000 		la	a4,HEAP_END_ADDR
  32      03370700 
  33 0034 83360700 		ld	a3,0(a4)
  34 0038 1387F603 		addi	a4,a3,63
  35              		.loc 1 14 90
  36 003c 137707FC 		andi	a4,a4,-64
  37              		.loc 1 14 27
  38 0040 17060000 		la	a2,_ZN15MemoryAllocator4hEndE
  38      03360600 
  39 0048 2330E600 		sd	a4,0(a2)
  15:src/setup.cpp **** 
GAS LISTING /tmp/ccw1O1Kp.s 			page 2


  16:src/setup.cpp ****     if (uint64(MemoryAllocator::hEnd) > (uint64) HEAP_END_ADDR)
  40              		.loc 1 16 5 is_stmt 1
  41 004c 63F6E600 		bgeu	a3,a4,.L2
  17:src/setup.cpp ****         MemoryAllocator::hEnd = (void*)((uint64)MemoryAllocator::hEnd -(uint64)MEM_BLOCK_SIZE); // 
  42              		.loc 1 17 9
  43              		.loc 1 17 71 is_stmt 0
  44 0050 130707FC 		addi	a4,a4,-64
  45              		.loc 1 17 31
  46 0054 2330E600 		sd	a4,0(a2)
  47              	.L2:
  18:src/setup.cpp **** 
  19:src/setup.cpp ****     //inicijalizujemo blk header za prvi slobodan blok
  20:src/setup.cpp ****     MemoryAllocator::freeMemHead = (BlockHeader*) MemoryAllocator::hStart;
  48              		.loc 1 20 5 is_stmt 1
  49              		.loc 1 20 34 is_stmt 0
  50 0058 17070000 		la	a4,_ZN15MemoryAllocator11freeMemHeadE
  50      03370700 
  51 0060 2330F700 		sd	a5,0(a4)
  21:src/setup.cpp ****     (*MemoryAllocator::freeMemHead).next = (*MemoryAllocator::freeMemHead).prev = nullptr;
  52              		.loc 1 21 5 is_stmt 1
  53              		.loc 1 21 81 is_stmt 0
  54 0064 23B00700 		sd	zero,0(a5)
  55              		.loc 1 21 6
  56 0068 03370700 		ld	a4,0(a4)
  57              		.loc 1 21 42
  58 006c 23340700 		sd	zero,8(a4)
  22:src/setup.cpp ****     (*MemoryAllocator::freeMemHead).size = ((uint64)MemoryAllocator::hEnd - (uint64)MemoryAllocator
  59              		.loc 1 22 5 is_stmt 1
  60              		.loc 1 22 75 is_stmt 0
  61 0070 97070000 		la	a5,_ZN15MemoryAllocator4hEndE
  61      83B70700 
  62 0078 83B70700 		ld	a5,0(a5)
  63 007c 97060000 		la	a3,_ZN15MemoryAllocator6hStartE
  63      83B60600 
  64 0084 83B60600 		ld	a3,0(a3)
  65 0088 B387D740 		sub	a5,a5,a3
  66              		.loc 1 22 109
  67 008c 93D76700 		srli	a5,a5,6
  68              		.loc 1 22 42
  69 0090 2338F700 		sd	a5,16(a4)
  23:src/setup.cpp ****     return 0;
  70              		.loc 1 23 5 is_stmt 1
  24:src/setup.cpp **** }...
  71              		.loc 1 24 1 is_stmt 0
  72 0094 13050000 		li	a0,0
  73 0098 03348100 		ld	s0,8(sp)
  74              		.cfi_restore 8
  75              		.cfi_def_cfa 2, 16
  76 009c 13010101 		addi	sp,sp,16
  77              		.cfi_def_cfa_offset 0
  78 00a0 67800000 		jr	ra
  79              		.cfi_endproc
  80              	.LFE1:
  82              	.Letext0:
  83              		.file 2 "src/../h/../lib/hw.h"
  84              		.file 3 "src/../h/../h/MemoryAllocator.hpp"
GAS LISTING /tmp/ccw1O1Kp.s 			page 3

