GAS LISTING /tmp/ccXS1WQP.s 			page 1


   1              		.file	"syscall_handler.cpp"
   2              		.option pic
   3              		.option norelax
   4              		.text
   5              	.Ltext0:
   6              		.align	2
   7              		.globl	_Z15syscall_handlermmmm
   9              	_Z15syscall_handlermmmm:
  10              	.LFB64:
  11              		.file 1 "src/syscall_handler.cpp"
   1:src/syscall_handler.cpp **** //
   2:src/syscall_handler.cpp **** // Created by os on 8/5/22.
   3:src/syscall_handler.cpp **** //
   4:src/syscall_handler.cpp **** #include "../h/syscall_handler.hpp"
   5:src/syscall_handler.cpp **** #include "../h/MemoryAllocator.hpp"
   6:src/syscall_handler.cpp **** #include "../h/TCB.hpp"
   7:src/syscall_handler.cpp **** #include "../h/kSemaphore.hpp"
   8:src/syscall_handler.cpp **** #include "../h/kConsole.hpp"
   9:src/syscall_handler.cpp **** #include "../h/printing.hpp"
  10:src/syscall_handler.cpp **** 
  11:src/syscall_handler.cpp **** 
  12:src/syscall_handler.cpp **** using body = void(*)();
  13:src/syscall_handler.cpp **** 
  14:src/syscall_handler.cpp **** uint64 syscall_handler(uint64 code, uint64 arg1, uint64 arg2, uint64 arg3){
  12              		.loc 1 14 75
  13              		.cfi_startproc
  14              	.LVL0:
  15:src/syscall_handler.cpp ****     uint64 res = 0x0;
  15              		.loc 1 15 5
  16:src/syscall_handler.cpp ****     switch(code){
  16              		.loc 1 16 5
  17 0000 93072004 		li	a5,66
  18 0004 63E2A71C 		bgtu	a0,a5,.L21
  14:src/syscall_handler.cpp ****     uint64 res = 0x0;
  19              		.loc 1 14 75 is_stmt 0
  20 0008 130101FE 		addi	sp,sp,-32
  21              		.cfi_def_cfa_offset 32
  22 000c 233C1100 		sd	ra,24(sp)
  23 0010 23388100 		sd	s0,16(sp)
  24 0014 23349100 		sd	s1,8(sp)
  25 0018 23302101 		sd	s2,0(sp)
  26              		.cfi_offset 1, -8
  27              		.cfi_offset 8, -16
  28              		.cfi_offset 9, -24
  29              		.cfi_offset 18, -32
  30 001c 13040102 		addi	s0,sp,32
  31              		.cfi_def_cfa 8, 0
  32 0020 13890500 		mv	s2,a1
  33 0024 93840600 		mv	s1,a3
  34 0028 13152500 		slli	a0,a0,2
  35              	.LVL1:
  36 002c 17070000 		lla	a4,.L4
  36      13070700 
  37 0034 3305E500 		add	a0,a0,a4
  38 0038 83270500 		lw	a5,0(a0)
  39 003c B387E700 		add	a5,a5,a4
  40 0040 67800700 		jr	a5
GAS LISTING /tmp/ccXS1WQP.s 			page 2


  41              		.section	.rodata
  42              		.align	2
  43              		.align	2
  44              	.L4:
  45 0000 00000000 		.word	.L17-.L4
  46 0004 00000000 		.word	.L15-.L4
  47 0008 00000000 		.word	.L14-.L4
  48 000c 00000000 		.word	.L17-.L4
  49 0010 00000000 		.word	.L17-.L4
  50 0014 00000000 		.word	.L17-.L4
  51 0018 00000000 		.word	.L17-.L4
  52 001c 00000000 		.word	.L17-.L4
  53 0020 00000000 		.word	.L17-.L4
  54 0024 00000000 		.word	.L17-.L4
  55 0028 00000000 		.word	.L17-.L4
  56 002c 00000000 		.word	.L17-.L4
  57 0030 00000000 		.word	.L17-.L4
  58 0034 00000000 		.word	.L17-.L4
  59 0038 00000000 		.word	.L17-.L4
  60 003c 00000000 		.word	.L17-.L4
  61 0040 00000000 		.word	.L17-.L4
  62 0044 00000000 		.word	.L13-.L4
  63 0048 00000000 		.word	.L12-.L4
  64 004c 00000000 		.word	.L11-.L4
  65 0050 00000000 		.word	.L17-.L4
  66 0054 00000000 		.word	.L17-.L4
  67 0058 00000000 		.word	.L17-.L4
  68 005c 00000000 		.word	.L17-.L4
  69 0060 00000000 		.word	.L17-.L4
  70 0064 00000000 		.word	.L17-.L4
  71 0068 00000000 		.word	.L17-.L4
  72 006c 00000000 		.word	.L17-.L4
  73 0070 00000000 		.word	.L17-.L4
  74 0074 00000000 		.word	.L17-.L4
  75 0078 00000000 		.word	.L17-.L4
  76 007c 00000000 		.word	.L17-.L4
  77 0080 00000000 		.word	.L17-.L4
  78 0084 00000000 		.word	.L10-.L4
  79 0088 00000000 		.word	.L9-.L4
  80 008c 00000000 		.word	.L8-.L4
  81 0090 00000000 		.word	.L7-.L4
  82 0094 00000000 		.word	.L17-.L4
  83 0098 00000000 		.word	.L17-.L4
  84 009c 00000000 		.word	.L17-.L4
  85 00a0 00000000 		.word	.L17-.L4
  86 00a4 00000000 		.word	.L17-.L4
  87 00a8 00000000 		.word	.L17-.L4
  88 00ac 00000000 		.word	.L17-.L4
  89 00b0 00000000 		.word	.L17-.L4
  90 00b4 00000000 		.word	.L17-.L4
  91 00b8 00000000 		.word	.L17-.L4
  92 00bc 00000000 		.word	.L17-.L4
  93 00c0 00000000 		.word	.L17-.L4
  94 00c4 00000000 		.word	.L6-.L4
  95 00c8 00000000 		.word	.L17-.L4
  96 00cc 00000000 		.word	.L17-.L4
  97 00d0 00000000 		.word	.L17-.L4
GAS LISTING /tmp/ccXS1WQP.s 			page 3


  98 00d4 00000000 		.word	.L17-.L4
  99 00d8 00000000 		.word	.L17-.L4
 100 00dc 00000000 		.word	.L17-.L4
 101 00e0 00000000 		.word	.L17-.L4
 102 00e4 00000000 		.word	.L17-.L4
 103 00e8 00000000 		.word	.L17-.L4
 104 00ec 00000000 		.word	.L17-.L4
 105 00f0 00000000 		.word	.L17-.L4
 106 00f4 00000000 		.word	.L17-.L4
 107 00f8 00000000 		.word	.L17-.L4
 108 00fc 00000000 		.word	.L17-.L4
 109 0100 00000000 		.word	.L17-.L4
 110 0104 00000000 		.word	.L5-.L4
 111 0108 00000000 		.word	.L3-.L4
 112              		.text
 113              	.L15:
 114              	.LBB19:
 115              	.LBB20:
  17:src/syscall_handler.cpp ****         case 0x01: {
 116              		.loc 1 17 9 is_stmt 1
 117              		.loc 1 17 20
  18:src/syscall_handler.cpp ****             res = (uint64) MemoryAllocator::kmalloc(arg1);
 118              		.loc 1 18 13
 119              		.loc 1 18 52 is_stmt 0
 120 0044 13850500 		mv	a0,a1
 121 0048 97000000 		call	_ZN15MemoryAllocator7kmallocEm@plt
 121      E7800000 
 122              	.LVL2:
  19:src/syscall_handler.cpp ****             break;
 123              		.loc 1 19 13 is_stmt 1
 124 0050 6F000015 		j	.L1
 125              	.LVL3:
 126              	.L14:
  20:src/syscall_handler.cpp ****         }
  21:src/syscall_handler.cpp ****         case 0x02: {
 127              		.loc 1 21 9
 128              		.loc 1 21 20
  22:src/syscall_handler.cpp **** 
  23:src/syscall_handler.cpp ****             res = (uint64)MemoryAllocator::kfree((void*)arg1);
 129              		.loc 1 23 13
 130              		.loc 1 23 49 is_stmt 0
 131 0054 13850500 		mv	a0,a1
 132 0058 97000000 		call	_ZN15MemoryAllocator5kfreeEPv@plt
 132      E7800000 
 133              	.LVL4:
  24:src/syscall_handler.cpp ****             break;
 134              		.loc 1 24 13 is_stmt 1
 135 0060 6F000014 		j	.L1
 136              	.LVL5:
 137              	.L13:
  25:src/syscall_handler.cpp ****         }
  26:src/syscall_handler.cpp ****         case 0x11:
 138              		.loc 1 26 9
  27:src/syscall_handler.cpp ****         {
 139              		.loc 1 27 9
 140              	.LBB21:
  28:src/syscall_handler.cpp ****             TCB* thr = TCB::createThread((body)arg1);
GAS LISTING /tmp/ccXS1WQP.s 			page 4


 141              		.loc 1 28 13
 142              		.loc 1 28 41 is_stmt 0
 143 0064 13850500 		mv	a0,a1
 144 0068 97000000 		call	_ZN3TCB12createThreadEPFvvE@plt
 144      E7800000 
 145              	.LVL6:
  29:src/syscall_handler.cpp ****             *(thread_t*)arg3 = thr;
 146              		.loc 1 29 13 is_stmt 1
 147              		.loc 1 29 30 is_stmt 0
 148 0070 23B0A400 		sd	a0,0(s1)
  30:src/syscall_handler.cpp ****             if(thr == nullptr){
 149              		.loc 1 30 13 is_stmt 1
 150 0074 63020514 		beqz	a0,.L18
  31:src/syscall_handler.cpp ****                 res = -1;
  32:src/syscall_handler.cpp ****                 break;
  33:src/syscall_handler.cpp ****             }
  34:src/syscall_handler.cpp ****             asm("mv t1, %0"::"r"(thr->savedRegs));
 151              		.loc 1 34 13
 152              		.loc 1 34 39 is_stmt 0
 153 0078 83370501 		ld	a5,16(a0)
 154              		.loc 1 34 50
 155              	#APP
 156              	# 34 "src/syscall_handler.cpp" 1
  35              	            asm("sd a2, 12*8(t1)");
 157              		mv t1, a5
 158              	# 0 "" 2
 159              		.loc 1 35 13 is_stmt 1
 160              		.loc 1 35 35 is_stmt 0
 161              	# 35 "src/syscall_handler.cpp" 1
  36              	            //thr->savedRegs[10] = arg2; //upisuje u novokreiranu nit njen argument
  37:src/syscall_handler.cpp ****             break;
 162              		sd a2, 12*8(t1)
 163              	# 0 "" 2
 164              		.loc 1 37 13 is_stmt 1
 165              	#NO_APP
 166              	.LBE21:
 167              	.LBE20:
 168              	.LBE19:
  15:src/syscall_handler.cpp ****     switch(code){
 169              		.loc 1 15 12 is_stmt 0
 170 0084 13050000 		li	a0,0
 171              	.LVL7:
 172              	.LBB56:
 173              	.LBB47:
 174              	.LBB22:
 175              		.loc 1 37 13
 176 0088 6F008011 		j	.L1
 177              	.LVL8:
 178              	.L12:
 179              	.LBE22:
  38:src/syscall_handler.cpp ****         }
  39:src/syscall_handler.cpp ****         case 0x12:
 180              		.loc 1 39 9 is_stmt 1
  40:src/syscall_handler.cpp ****         {
 181              		.loc 1 40 9
  41:src/syscall_handler.cpp ****             TCB::running->setFinished(true);
 182              		.loc 1 41 13
GAS LISTING /tmp/ccXS1WQP.s 			page 5


 183              		.loc 1 41 38 is_stmt 0
 184 008c 97070000 		la	a5,_ZN3TCB7runningE
 184      83B70700 
 185 0094 83B70700 		ld	a5,0(a5)
 186              	.LVL9:
 187              	.LBB23:
 188              	.LBB24:
 189              		.file 2 "src/../h/TCB.hpp"
   1:src/../h/TCB.hpp **** //
   2:src/../h/TCB.hpp **** // Created by os on 8/6/22.
   3:src/../h/TCB.hpp **** //
   4:src/../h/TCB.hpp **** 
   5:src/../h/TCB.hpp **** #ifndef PROJECT_BASE_TCB_HPP
   6:src/../h/TCB.hpp **** #define PROJECT_BASE_TCB_HPP
   7:src/../h/TCB.hpp **** 
   8:src/../h/TCB.hpp **** 
   9:src/../h/TCB.hpp **** #include "../lib/hw.h"
  10:src/../h/TCB.hpp **** #include "../h/Scheduler.hpp"
  11:src/../h/TCB.hpp **** #include "../h/MemoryAllocator.hpp"
  12:src/../h/TCB.hpp **** #include "../h/syscall_c.h"
  13:src/../h/TCB.hpp **** 
  14:src/../h/TCB.hpp **** 
  15:src/../h/TCB.hpp **** 
  16:src/../h/TCB.hpp **** 
  17:src/../h/TCB.hpp **** class TCB {
  18:src/../h/TCB.hpp **** 
  19:src/../h/TCB.hpp **** public:
  20:src/../h/TCB.hpp **** 
  21:src/../h/TCB.hpp ****     //~TCB(){ MemoryAllocator::kfree(stack);}; // VRATI SE NA OVO
  22:src/../h/TCB.hpp **** 
  23:src/../h/TCB.hpp ****     bool isFinished() const { return finished; }
  24:src/../h/TCB.hpp **** 
  25:src/../h/TCB.hpp ****     bool isBlocked() const { return blocked; }
  26:src/../h/TCB.hpp **** 
  27:src/../h/TCB.hpp ****     bool isAsleep() const { return asleep; }
  28:src/../h/TCB.hpp **** 
  29:src/../h/TCB.hpp ****     bool isKernelThread() const { return kernelThreadFlag; }
  30:src/../h/TCB.hpp **** 
  31:src/../h/TCB.hpp ****     bool isWaitingForInput() const { return waitingForInput; }
  32:src/../h/TCB.hpp **** 
  33:src/../h/TCB.hpp ****     void setFinished(bool value) { finished = value; }
 190              		.loc 2 33 36 is_stmt 1
 191              		.loc 2 33 45 is_stmt 0
 192 0098 13071000 		li	a4,1
 193 009c 2388E702 		sb	a4,48(a5)
 194              	.LBE24:
 195              	.LBE23:
 196              	.LBE47:
 197              	.LBE56:
  15:src/syscall_handler.cpp ****     switch(code){
 198              		.loc 1 15 12
 199 00a0 13050000 		li	a0,0
 200              	.LBB57:
 201              	.LBB48:
 202              	.LBB26:
 203              	.LBB25:
 204              		.loc 2 33 54
GAS LISTING /tmp/ccXS1WQP.s 			page 6


 205 00a4 6F00C00F 		j	.L1
 206              	.LVL10:
 207              	.L11:
 208              	.LBE25:
 209              	.LBE26:
  42:src/syscall_handler.cpp ****             break;
  43:src/syscall_handler.cpp ****         }
  44:src/syscall_handler.cpp ****         case 0x13: {
 210              		.loc 1 44 9 is_stmt 1
 211              		.loc 1 44 20
  45:src/syscall_handler.cpp ****             TCB::timeSliceCounter = 0;
 212              		.loc 1 45 13
 213              		.loc 1 45 35 is_stmt 0
 214 00a8 97070000 		la	a5,_ZN3TCB16timeSliceCounterE
 214      83B70700 
 215 00b0 23B00700 		sd	zero,0(a5)
  46:src/syscall_handler.cpp ****             TCB::dispatch();
 216              		.loc 1 46 13 is_stmt 1
 217              		.loc 1 46 26 is_stmt 0
 218 00b4 97000000 		call	_ZN3TCB8dispatchEv@plt
 218      E7800000 
 219              	.LVL11:
  47:src/syscall_handler.cpp ****             break;
 220              		.loc 1 47 13 is_stmt 1
 221              	.LBE48:
 222              	.LBE57:
  15:src/syscall_handler.cpp ****     switch(code){
 223              		.loc 1 15 12 is_stmt 0
 224 00bc 13050000 		li	a0,0
 225              	.LBB58:
 226              	.LBB49:
 227              		.loc 1 47 13
 228 00c0 6F00000E 		j	.L1
 229              	.LVL12:
 230              	.L10:
  48:src/syscall_handler.cpp ****         }
  49:src/syscall_handler.cpp ****         case 0x21:
 231              		.loc 1 49 9 is_stmt 1
  50:src/syscall_handler.cpp ****         {
 232              		.loc 1 50 9
 233              	.LBB27:
  51:src/syscall_handler.cpp ****             sem_t semaphore = kSemaphore::createSemaphore((signed) arg2);
 234              		.loc 1 51 13
 235              		.loc 1 51 58 is_stmt 0
 236 00c4 1B050600 		sext.w	a0,a2
 237 00c8 97000000 		call	_ZN10kSemaphore15createSemaphoreEi@plt
 237      E7800000 
 238              	.LVL13:
  52:src/syscall_handler.cpp ****             *((sem_t *) arg1) = semaphore;
 239              		.loc 1 52 13 is_stmt 1
 240              		.loc 1 52 31 is_stmt 0
 241 00d0 2330A900 		sd	a0,0(s2)
  53:src/syscall_handler.cpp ****             if (semaphore == nullptr) {
 242              		.loc 1 53 13 is_stmt 1
 243 00d4 6306050E 		beqz	a0,.L19
 244              	.LBE27:
 245              	.LBE49:
GAS LISTING /tmp/ccXS1WQP.s 			page 7


 246              	.LBE58:
  15:src/syscall_handler.cpp ****     switch(code){
 247              		.loc 1 15 12 is_stmt 0
 248 00d8 13050000 		li	a0,0
 249              	.LVL14:
 250 00dc 6F00400C 		j	.L1
 251              	.LVL15:
 252              	.L9:
 253              	.LBB59:
 254              	.LBB50:
  54:src/syscall_handler.cpp ****                 res = -1;
  55:src/syscall_handler.cpp ****             }
  56:src/syscall_handler.cpp ****             break;
  57:src/syscall_handler.cpp ****         }
  58:src/syscall_handler.cpp ****         case 0x22:
 255              		.loc 1 58 9 is_stmt 1
  59:src/syscall_handler.cpp ****         {
 256              		.loc 1 59 9
 257              	.LBB28:
  60:src/syscall_handler.cpp ****             sem_t handle = (sem_t)arg1;
 258              		.loc 1 60 13
  61:src/syscall_handler.cpp ****             // dovrsi deblokiranje niti i vracanje greske ! u waitu
  62:src/syscall_handler.cpp ****             handle->setOpen(false);
 259              		.loc 1 62 13
 260              	.LBB29:
 261              	.LBB30:
 262              		.file 3 "src/../h/../h/../h/kSemaphore.hpp"
   1:src/../h/../h/../h/kSemaphore.hpp **** //
   2:src/../h/../h/../h/kSemaphore.hpp **** // Created by os on 8/13/22.
   3:src/../h/../h/../h/kSemaphore.hpp **** //
   4:src/../h/../h/../h/kSemaphore.hpp **** 
   5:src/../h/../h/../h/kSemaphore.hpp **** #ifndef PROJECT_BASE_KSEMAPHORE_HPP
   6:src/../h/../h/../h/kSemaphore.hpp **** #define PROJECT_BASE_KSEMAPHORE_HPP
   7:src/../h/../h/../h/kSemaphore.hpp **** 
   8:src/../h/../h/../h/kSemaphore.hpp **** #include "list.hpp"
   9:src/../h/../h/../h/kSemaphore.hpp **** #include "TCB.hpp"
  10:src/../h/../h/../h/kSemaphore.hpp **** 
  11:src/../h/../h/../h/kSemaphore.hpp **** class kSemaphore{
  12:src/../h/../h/../h/kSemaphore.hpp **** 
  13:src/../h/../h/../h/kSemaphore.hpp **** public:
  14:src/../h/../h/../h/kSemaphore.hpp **** 
  15:src/../h/../h/../h/kSemaphore.hpp ****     static kSemaphore* createSemaphore(signed init);
  16:src/../h/../h/../h/kSemaphore.hpp **** 
  17:src/../h/../h/../h/kSemaphore.hpp ****     int wait();
  18:src/../h/../h/../h/kSemaphore.hpp ****     int signal();
  19:src/../h/../h/../h/kSemaphore.hpp ****     signed value() const { return val; }
  20:src/../h/../h/../h/kSemaphore.hpp **** 
  21:src/../h/../h/../h/kSemaphore.hpp ****     bool isOpen() const { return opened; }
  22:src/../h/../h/../h/kSemaphore.hpp ****     void setOpen( bool state ){ opened = state; }
 263              		.loc 3 22 33
 264              		.loc 3 22 40 is_stmt 0
 265 00e0 23820500 		sb	zero,4(a1)
 266              	.LBE30:
 267              	.LBE29:
 268              	.LBE28:
 269              	.LBE50:
 270              	.LBE59:
GAS LISTING /tmp/ccXS1WQP.s 			page 8


  15:src/syscall_handler.cpp ****     switch(code){
 271              		.loc 1 15 12
 272 00e4 13050000 		li	a0,0
 273              	.LBB60:
 274              	.LBB51:
 275              	.LBB33:
 276              	.LBB32:
 277              	.LBB31:
 278              		.loc 3 22 49
 279 00e8 6F00800B 		j	.L1
 280              	.LVL16:
 281              	.L8:
 282              	.LBE31:
 283              	.LBE32:
 284              	.LBE33:
  63:src/syscall_handler.cpp ****             break;
  64:src/syscall_handler.cpp ****         }
  65:src/syscall_handler.cpp ****         case 0x23:{
 285              		.loc 1 65 9 is_stmt 1
 286              		.loc 1 65 19
 287              	.LBB34:
  66:src/syscall_handler.cpp ****             sem_t handle = (sem_t)arg1;
 288              		.loc 1 66 13
  67:src/syscall_handler.cpp ****             res = handle->wait();
 289              		.loc 1 67 13
 290              		.loc 1 67 31 is_stmt 0
 291 00ec 13850500 		mv	a0,a1
 292 00f0 97000000 		call	_ZN10kSemaphore4waitEv@plt
 292      E7800000 
 293              	.LVL17:
  68:src/syscall_handler.cpp ****             break;
 294              		.loc 1 68 13 is_stmt 1
 295 00f8 6F00800A 		j	.L1
 296              	.LVL18:
 297              	.L7:
 298              	.LBE34:
  69:src/syscall_handler.cpp ****         }
  70:src/syscall_handler.cpp ****         case 0x24:{
 299              		.loc 1 70 9
 300              		.loc 1 70 19
 301              	.LBB35:
  71:src/syscall_handler.cpp **** 
  72:src/syscall_handler.cpp ****             sem_t handle = (sem_t)arg1;
 302              		.loc 1 72 13
  73:src/syscall_handler.cpp ****             res = handle->signal();
 303              		.loc 1 73 13
 304              		.loc 1 73 33 is_stmt 0
 305 00fc 13850500 		mv	a0,a1
 306 0100 97000000 		call	_ZN10kSemaphore6signalEv@plt
 306      E7800000 
 307              	.LVL19:
  74:src/syscall_handler.cpp ****             break;
 308              		.loc 1 74 13 is_stmt 1
 309 0108 6F008009 		j	.L1
 310              	.LVL20:
 311              	.L6:
 312              	.LBE35:
GAS LISTING /tmp/ccXS1WQP.s 			page 9


  75:src/syscall_handler.cpp ****         }
  76:src/syscall_handler.cpp **** 
  77:src/syscall_handler.cpp ****         case 0x31:{
 313              		.loc 1 77 9
 314              		.loc 1 77 19
 315              	.LBB36:
  78:src/syscall_handler.cpp **** 
  79:src/syscall_handler.cpp ****             time_t time = (time_t)arg1;
 316              		.loc 1 79 13
  80:src/syscall_handler.cpp ****             TCB::sleepThread(time);
 317              		.loc 1 80 13
 318              		.loc 1 80 29 is_stmt 0
 319 010c 13850500 		mv	a0,a1
 320 0110 97000000 		call	_ZN3TCB11sleepThreadEm@plt
 320      E7800000 
 321              	.LVL21:
  81:src/syscall_handler.cpp ****             TCB::timeSliceCounter = 0;
 322              		.loc 1 81 13 is_stmt 1
 323              		.loc 1 81 35 is_stmt 0
 324 0118 97070000 		la	a5,_ZN3TCB16timeSliceCounterE
 324      83B70700 
 325 0120 23B00700 		sd	zero,0(a5)
  82:src/syscall_handler.cpp ****             TCB::dispatch();
 326              		.loc 1 82 13 is_stmt 1
 327              		.loc 1 82 26 is_stmt 0
 328 0124 97000000 		call	_ZN3TCB8dispatchEv@plt
 328      E7800000 
 329              	.LVL22:
  83:src/syscall_handler.cpp ****             break;
 330              		.loc 1 83 13 is_stmt 1
 331              	.LBE36:
 332              	.LBE51:
 333              	.LBE60:
  15:src/syscall_handler.cpp ****     switch(code){
 334              		.loc 1 15 12 is_stmt 0
 335 012c 13050000 		li	a0,0
 336              	.LBB61:
 337              	.LBB52:
 338              	.LBB37:
 339              		.loc 1 83 13
 340 0130 6F000007 		j	.L1
 341              	.LVL23:
 342              	.L5:
 343              	.LBE37:
  84:src/syscall_handler.cpp ****         }
  85:src/syscall_handler.cpp ****         case 0x41:
 344              		.loc 1 85 9 is_stmt 1
  86:src/syscall_handler.cpp ****         {
 345              		.loc 1 86 9
 346              	.LBB38:
  87:src/syscall_handler.cpp ****             char c = kConsole::getIB();
 347              		.loc 1 87 13
 348              		.loc 1 87 37 is_stmt 0
 349 0134 97000000 		call	_ZN8kConsole5getIBEv@plt
 349      E7800000 
 350              	.LVL24:
 351 013c 93040500 		mv	s1,a0
GAS LISTING /tmp/ccXS1WQP.s 			page 10


 352              	.LVL25:
  88:src/syscall_handler.cpp ****             if (c == 0) {
 353              		.loc 1 88 13 is_stmt 1
 354 0140 63060500 		beqz	a0,.L24
 355              	.LVL26:
 356              	.L16:
  89:src/syscall_handler.cpp ****                 kConsole::addLast(TCB::running);
  90:src/syscall_handler.cpp ****                 TCB::running->setBlocked(true);
  91:src/syscall_handler.cpp ****                 TCB::running->setWaitingForInput(true);
  92:src/syscall_handler.cpp ****                 TCB::timeSliceCounter = 0;
  93:src/syscall_handler.cpp ****                 TCB::dispatch(); //izvrsi neku drugu nit
  94:src/syscall_handler.cpp ****             }
  95:src/syscall_handler.cpp ****             res = (uint64)c;
 357              		.loc 1 95 13
 358              		.loc 1 95 17 is_stmt 0
 359 0144 13850400 		mv	a0,s1
 360              	.LVL27:
  96:src/syscall_handler.cpp ****             break;
 361              		.loc 1 96 13 is_stmt 1
 362 0148 6F008005 		j	.L1
 363              	.LVL28:
 364              	.L24:
  89:src/syscall_handler.cpp ****                 kConsole::addLast(TCB::running);
 365              		.loc 1 89 17
  89:src/syscall_handler.cpp ****                 kConsole::addLast(TCB::running);
 366              		.loc 1 89 34 is_stmt 0
 367 014c 17090000 		la	s2,_ZN3TCB7runningE
 367      03390900 
 368              	.LVL29:
 369 0154 03350900 		ld	a0,0(s2)
 370              	.LVL30:
 371 0158 97000000 		call	_ZN8kConsole7addLastEP3TCB@plt
 371      E7800000 
 372              	.LVL31:
  90:src/syscall_handler.cpp ****                 TCB::running->setWaitingForInput(true);
 373              		.loc 1 90 17 is_stmt 1
  90:src/syscall_handler.cpp ****                 TCB::running->setWaitingForInput(true);
 374              		.loc 1 90 41 is_stmt 0
 375 0160 83370900 		ld	a5,0(s2)
 376              	.LVL32:
 377              	.LBB39:
 378              	.LBB40:
  34:src/../h/TCB.hpp **** 
  35:src/../h/TCB.hpp ****     void setBlocked(bool value) { blocked = value; }
 379              		.loc 2 35 35 is_stmt 1
 380              		.loc 2 35 43 is_stmt 0
 381 0164 13071000 		li	a4,1
 382 0168 A388E702 		sb	a4,49(a5)
 383              	.LVL33:
 384              	.LBE40:
 385              	.LBE39:
  91:src/syscall_handler.cpp ****                 TCB::timeSliceCounter = 0;
 386              		.loc 1 91 17 is_stmt 1
 387              	.LBB41:
 388              	.LBB42:
  36:src/../h/TCB.hpp **** 
  37:src/../h/TCB.hpp ****     void setAsleep(bool value) { asleep = value; }
GAS LISTING /tmp/ccXS1WQP.s 			page 11


  38:src/../h/TCB.hpp **** 
  39:src/../h/TCB.hpp ****     void setKernelFlag(bool value) { kernelThreadFlag = value; }
  40:src/../h/TCB.hpp **** 
  41:src/../h/TCB.hpp ****     void setWaitingForInput(bool value) { waitingForInput = value; }
 389              		.loc 2 41 43
 390              		.loc 2 41 59 is_stmt 0
 391 016c 238AE702 		sb	a4,52(a5)
 392              	.LVL34:
 393              	.LBE42:
 394              	.LBE41:
  92:src/syscall_handler.cpp ****                 TCB::dispatch(); //izvrsi neku drugu nit
 395              		.loc 1 92 17 is_stmt 1
  92:src/syscall_handler.cpp ****                 TCB::dispatch(); //izvrsi neku drugu nit
 396              		.loc 1 92 39 is_stmt 0
 397 0170 97070000 		la	a5,_ZN3TCB16timeSliceCounterE
 397      83B70700 
 398 0178 23B00700 		sd	zero,0(a5)
  93:src/syscall_handler.cpp ****             }
 399              		.loc 1 93 17 is_stmt 1
  93:src/syscall_handler.cpp ****             }
 400              		.loc 1 93 30 is_stmt 0
 401 017c 97000000 		call	_ZN3TCB8dispatchEv@plt
 401      E7800000 
 402              	.LVL35:
 403 0184 6FF01FFC 		j	.L16
 404              	.LVL36:
 405              	.L3:
 406              	.LBE38:
  97:src/syscall_handler.cpp ****         }
  98:src/syscall_handler.cpp ****         case 0x42:
 407              		.loc 1 98 9 is_stmt 1
  99:src/syscall_handler.cpp ****         {
 408              		.loc 1 99 9
 100:src/syscall_handler.cpp ****             kConsole::putOB((char) arg1);
 409              		.loc 1 100 13
 410              		.loc 1 100 28 is_stmt 0
 411 0188 13F5F50F 		andi	a0,a1,0xff
 412 018c 97000000 		call	_ZN8kConsole5putOBEc@plt
 412      E7800000 
 413              	.LVL37:
 101:src/syscall_handler.cpp ****             break;
 414              		.loc 1 101 13 is_stmt 1
 415              	.LBE52:
 416              	.LBE61:
  15:src/syscall_handler.cpp ****     switch(code){
 417              		.loc 1 15 12 is_stmt 0
 418 0194 13050000 		li	a0,0
 419              	.LBB62:
 420              	.LBB53:
 421              		.loc 1 101 13
 422 0198 6F008000 		j	.L1
 423              	.LVL38:
 424              	.L17:
 425              	.LBB43:
  31:src/syscall_handler.cpp ****                 break;
 426              		.loc 1 31 21
 427 019c 13050000 		li	a0,0
GAS LISTING /tmp/ccXS1WQP.s 			page 12


 428              	.LVL39:
 429              	.L1:
 430              	.LBE43:
 431              	.LBE53:
 432              	.LBE62:
 102:src/syscall_handler.cpp ****         }
 103:src/syscall_handler.cpp ****     }
 104:src/syscall_handler.cpp **** 
 105:src/syscall_handler.cpp ****     return res;
 106:src/syscall_handler.cpp **** };...
 433              		.loc 1 106 1
 434 01a0 83308101 		ld	ra,24(sp)
 435              		.cfi_remember_state
 436              		.cfi_restore 1
 437 01a4 03340101 		ld	s0,16(sp)
 438              		.cfi_restore 8
 439              		.cfi_def_cfa 2, 32
 440 01a8 83348100 		ld	s1,8(sp)
 441              		.cfi_restore 9
 442 01ac 03390100 		ld	s2,0(sp)
 443              		.cfi_restore 18
 444 01b0 13010102 		addi	sp,sp,32
 445              		.cfi_def_cfa_offset 0
 446 01b4 67800000 		jr	ra
 447              	.LVL40:
 448              	.L18:
 449              		.cfi_restore_state
 450              	.LBB63:
 451              	.LBB54:
 452              	.LBB44:
  31:src/syscall_handler.cpp ****                 break;
 453              		.loc 1 31 21
 454 01b8 1305F0FF 		li	a0,-1
 455              	.LVL41:
 456 01bc 6FF05FFE 		j	.L1
 457              	.LVL42:
 458              	.L19:
 459              	.LBE44:
 460              	.LBB45:
  54:src/syscall_handler.cpp ****                 res = -1;
 461              		.loc 1 54 21
 462 01c0 1305F0FF 		li	a0,-1
 463              	.LVL43:
 464              	.LBE45:
 465              	.LBE54:
 466              	.LBE63:
 105:src/syscall_handler.cpp ****     return res;
 467              		.loc 1 105 5 is_stmt 1
 105:src/syscall_handler.cpp ****     return res;
 468              		.loc 1 105 12 is_stmt 0
 469 01c4 6FF0DFFD 		j	.L1
 470              	.LVL44:
 471              	.L21:
 472              		.cfi_def_cfa_register 2
 473              		.cfi_restore 1
 474              		.cfi_restore 8
 475              		.cfi_restore 9
GAS LISTING /tmp/ccXS1WQP.s 			page 13


 476              		.cfi_restore 18
 477              	.LBB64:
 478              	.LBB55:
 479              	.LBB46:
  31:src/syscall_handler.cpp ****                 res = -1;
 480              		.loc 1 31 21
 481 01c8 13050000 		li	a0,0
 482              	.LVL45:
 483              	.LBE46:
 484              	.LBE55:
 485              	.LBE64:
 486              		.loc 1 106 1
 487 01cc 67800000 		ret
 488              		.cfi_endproc
 489              	.LFE64:
 491              	.Letext0:
 492              		.file 4 "src/../h/../lib/hw.h"
 493              		.file 5 "src/../h/MemoryAllocator.hpp"
 494              		.file 6 "src/../h/../h/../h/list.hpp"
 495              		.file 7 "src/../h/../h/syscall_c.h"
 496              		.file 8 "src/../h/kConsole.hpp"
GAS LISTING /tmp/ccXS1WQP.s 			page 14

