GAS LISTING /tmp/ccbnJDEW.s 			page 1


   1              		.file	"syscall_cpp.cpp"
   2              		.option pic
   3              		.option norelax
   4              		.text
   5              	.Ltext0:
   6              		.section	.text._ZN6ThreadD2Ev,"axG",@progbits,_ZN6ThreadD5Ev,comdat
   7              		.align	2
   8              		.weak	_ZN6ThreadD2Ev
  10              	_ZN6ThreadD2Ev:
  11              	.LFB42:
  12              		.file 1 "src/../h/syscall_cpp.hpp"
   1:src/../h/syscall_cpp.hpp **** //
   2:src/../h/syscall_cpp.hpp **** // Created by os on 8/12/22.
   3:src/../h/syscall_cpp.hpp **** //
   4:src/../h/syscall_cpp.hpp **** 
   5:src/../h/syscall_cpp.hpp **** #ifndef PROJECT_BASE_SYSCALL_CPP_HPP
   6:src/../h/syscall_cpp.hpp **** #define PROJECT_BASE_SYSCALL_CPP_HPP
   7:src/../h/syscall_cpp.hpp **** 
   8:src/../h/syscall_cpp.hpp **** 
   9:src/../h/syscall_cpp.hpp **** #include "syscall_c.h"
  10:src/../h/syscall_cpp.hpp **** 
  11:src/../h/syscall_cpp.hpp **** 
  12:src/../h/syscall_cpp.hpp **** class Thread {
  13:src/../h/syscall_cpp.hpp **** public:
  14:src/../h/syscall_cpp.hpp ****     Thread (void (*body)(void*), void* arg);
  15:src/../h/syscall_cpp.hpp ****     virtual ~Thread (){};
  13              		.loc 1 15 13
  14              		.cfi_startproc
  15              	.LVL0:
  16 0000 130101FF 		addi	sp,sp,-16
  17              		.cfi_def_cfa_offset 16
  18 0004 23348100 		sd	s0,8(sp)
  19              		.cfi_offset 8, -8
  20 0008 13040101 		addi	s0,sp,16
  21              		.cfi_def_cfa 8, 0
  22              		.loc 1 15 24 is_stmt 0
  23 000c 03348100 		ld	s0,8(sp)
  24              		.cfi_restore 8
  25              		.cfi_def_cfa 2, 16
  26 0010 13010101 		addi	sp,sp,16
  27              		.cfi_def_cfa_offset 0
  28 0014 67800000 		jr	ra
  29              		.cfi_endproc
  30              	.LFE42:
  32              		.weak	_ZN6ThreadD1Ev
  33              		.set	_ZN6ThreadD1Ev,_ZN6ThreadD2Ev
  34              		.section	.text._ZN6Thread3runEv,"axG",@progbits,_ZN6Thread3runEv,comdat
  35              		.align	2
  36              		.weak	_ZN6Thread3runEv
  38              	_ZN6Thread3runEv:
  39              	.LFB48:
  16:src/../h/syscall_cpp.hpp ****     int start ();
  17:src/../h/syscall_cpp.hpp ****     static void dispatch ();
  18:src/../h/syscall_cpp.hpp ****     static void wrapper(void* t);
  19:src/../h/syscall_cpp.hpp ****     static int sleep (time_t);
  20:src/../h/syscall_cpp.hpp **** 
  21:src/../h/syscall_cpp.hpp ****     void* operator new (size_t size);
GAS LISTING /tmp/ccbnJDEW.s 			page 2


  22:src/../h/syscall_cpp.hpp ****     void operator delete (void* addr) noexcept;
  23:src/../h/syscall_cpp.hpp **** 
  24:src/../h/syscall_cpp.hpp **** 
  25:src/../h/syscall_cpp.hpp ****     //static int sleep (time_t);
  26:src/../h/syscall_cpp.hpp **** protected:
  27:src/../h/syscall_cpp.hpp ****     Thread () : myHandle(nullptr){};
  28:src/../h/syscall_cpp.hpp ****     virtual void run () {}
  40              		.loc 1 28 18 is_stmt 1
  41              		.cfi_startproc
  42              	.LVL1:
  43 0000 130101FF 		addi	sp,sp,-16
  44              		.cfi_def_cfa_offset 16
  45 0004 23348100 		sd	s0,8(sp)
  46              		.cfi_offset 8, -8
  47 0008 13040101 		addi	s0,sp,16
  48              		.cfi_def_cfa 8, 0
  49              		.loc 1 28 26 is_stmt 0
  50 000c 03348100 		ld	s0,8(sp)
  51              		.cfi_restore 8
  52              		.cfi_def_cfa 2, 16
  53 0010 13010101 		addi	sp,sp,16
  54              		.cfi_def_cfa_offset 0
  55 0014 67800000 		jr	ra
  56              		.cfi_endproc
  57              	.LFE48:
  59              		.section	.text._ZN14PeriodicThread18periodicActivationEv,"axG",@progbits,_ZN14PeriodicThread18peri
  60              		.align	2
  61              		.weak	_ZN14PeriodicThread18periodicActivationEv
  63              	_ZN14PeriodicThread18periodicActivationEv:
  64              	.LFB49:
  29:src/../h/syscall_cpp.hpp **** private:
  30:src/../h/syscall_cpp.hpp ****     thread_t myHandle;
  31:src/../h/syscall_cpp.hpp **** };
  32:src/../h/syscall_cpp.hpp **** 
  33:src/../h/syscall_cpp.hpp **** class PeriodicThread : public Thread {
  34:src/../h/syscall_cpp.hpp **** 
  35:src/../h/syscall_cpp.hpp **** protected:
  36:src/../h/syscall_cpp.hpp **** 
  37:src/../h/syscall_cpp.hpp ****     PeriodicThread (time_t period);
  38:src/../h/syscall_cpp.hpp **** 
  39:src/../h/syscall_cpp.hpp ****     virtual void periodicActivation () {}
  65              		.loc 1 39 18 is_stmt 1
  66              		.cfi_startproc
  67              	.LVL2:
  68 0000 130101FF 		addi	sp,sp,-16
  69              		.cfi_def_cfa_offset 16
  70 0004 23348100 		sd	s0,8(sp)
  71              		.cfi_offset 8, -8
  72 0008 13040101 		addi	s0,sp,16
  73              		.cfi_def_cfa 8, 0
  74              		.loc 1 39 41 is_stmt 0
  75 000c 03348100 		ld	s0,8(sp)
  76              		.cfi_restore 8
  77              		.cfi_def_cfa 2, 16
  78 0010 13010101 		addi	sp,sp,16
  79              		.cfi_def_cfa_offset 0
  80 0014 67800000 		jr	ra
GAS LISTING /tmp/ccbnJDEW.s 			page 3


  81              		.cfi_endproc
  82              	.LFE49:
  84              		.section	.text._ZN9SemaphoreD2Ev,"axG",@progbits,_ZN9SemaphoreD5Ev,comdat
  85              		.align	2
  86              		.weak	_ZN9SemaphoreD2Ev
  88              	_ZN9SemaphoreD2Ev:
  89              	.LFB51:
  40:src/../h/syscall_cpp.hpp **** 
  41:src/../h/syscall_cpp.hpp ****     void run();
  42:src/../h/syscall_cpp.hpp **** 
  43:src/../h/syscall_cpp.hpp **** private:
  44:src/../h/syscall_cpp.hpp **** 
  45:src/../h/syscall_cpp.hpp ****     time_t period;
  46:src/../h/syscall_cpp.hpp **** 
  47:src/../h/syscall_cpp.hpp **** };
  48:src/../h/syscall_cpp.hpp **** 
  49:src/../h/syscall_cpp.hpp **** 
  50:src/../h/syscall_cpp.hpp **** 
  51:src/../h/syscall_cpp.hpp **** 
  52:src/../h/syscall_cpp.hpp **** class Semaphore {
  53:src/../h/syscall_cpp.hpp **** public:
  54:src/../h/syscall_cpp.hpp ****     Semaphore (signed init = 1);
  55:src/../h/syscall_cpp.hpp ****     virtual ~Semaphore (){};
  90              		.loc 1 55 13 is_stmt 1
  91              		.cfi_startproc
  92              	.LVL3:
  93 0000 130101FF 		addi	sp,sp,-16
  94              		.cfi_def_cfa_offset 16
  95 0004 23348100 		sd	s0,8(sp)
  96              		.cfi_offset 8, -8
  97 0008 13040101 		addi	s0,sp,16
  98              		.cfi_def_cfa 8, 0
  99              		.loc 1 55 27 is_stmt 0
 100 000c 03348100 		ld	s0,8(sp)
 101              		.cfi_restore 8
 102              		.cfi_def_cfa 2, 16
 103 0010 13010101 		addi	sp,sp,16
 104              		.cfi_def_cfa_offset 0
 105 0014 67800000 		jr	ra
 106              		.cfi_endproc
 107              	.LFE51:
 109              		.weak	_ZN9SemaphoreD1Ev
 110              		.set	_ZN9SemaphoreD1Ev,_ZN9SemaphoreD2Ev
 111              		.text
 112              		.align	2
 113              		.globl	_ZN6Thread7wrapperEPv
 115              	_ZN6Thread7wrapperEPv:
 116              	.LFB54:
 117              		.file 2 "src/syscall_cpp.cpp"
   1:src/syscall_cpp.cpp **** //
   2:src/syscall_cpp.cpp **** // Created by os on 8/12/22.
   3:src/syscall_cpp.cpp **** //
   4:src/syscall_cpp.cpp **** #include "../h/syscall_cpp.hpp"
   5:src/syscall_cpp.cpp **** 
   6:src/syscall_cpp.cpp **** 
   7:src/syscall_cpp.cpp **** void Thread::wrapper(void* t){
 118              		.loc 2 7 30 is_stmt 1
GAS LISTING /tmp/ccbnJDEW.s 			page 4


 119              		.cfi_startproc
 120              	.LVL4:
   8:src/syscall_cpp.cpp ****     if(t) ((Thread*)t)->run();
 121              		.loc 2 8 5
 122 0000 63080502 		beqz	a0,.L12
   7:src/syscall_cpp.cpp ****     if(t) ((Thread*)t)->run();
 123              		.loc 2 7 30 is_stmt 0 discriminator 1
 124 0004 130101FF 		addi	sp,sp,-16
 125              		.cfi_def_cfa_offset 16
 126 0008 23341100 		sd	ra,8(sp)
 127 000c 23308100 		sd	s0,0(sp)
 128              		.cfi_offset 1, -8
 129              		.cfi_offset 8, -16
 130 0010 13040101 		addi	s0,sp,16
 131              		.cfi_def_cfa 8, 0
 132              		.loc 2 8 11 is_stmt 1 discriminator 1
 133              		.loc 2 8 29 is_stmt 0 discriminator 1
 134 0014 83370500 		ld	a5,0(a0)
 135 0018 83B70701 		ld	a5,16(a5)
 136              		.loc 2 8 28 discriminator 1
 137 001c E7800700 		jalr	a5
 138              	.LVL5:
   9:src/syscall_cpp.cpp **** 
  10:src/syscall_cpp.cpp **** }
 139              		.loc 2 10 1 discriminator 1
 140 0020 83308100 		ld	ra,8(sp)
 141              		.cfi_restore 1
 142 0024 03340100 		ld	s0,0(sp)
 143              		.cfi_restore 8
 144              		.cfi_def_cfa 2, 16
 145 0028 13010101 		addi	sp,sp,16
 146              		.cfi_def_cfa_offset 0
 147 002c 67800000 		jr	ra
 148              	.LVL6:
 149              	.L12:
 150 0030 67800000 		ret
 151              		.cfi_endproc
 152              	.LFE54:
 154              		.section	.text._ZN14PeriodicThreadD2Ev,"axG",@progbits,_ZN14PeriodicThreadD5Ev,comdat
 155              		.align	2
 156              		.weak	_ZN14PeriodicThreadD2Ev
 158              	_ZN14PeriodicThreadD2Ev:
 159              	.LFB80:
  33:src/../h/syscall_cpp.hpp **** 
 160              		.loc 1 33 7 is_stmt 1
 161              		.cfi_startproc
 162              	.LVL7:
 163 0000 130101FF 		addi	sp,sp,-16
 164              		.cfi_def_cfa_offset 16
 165 0004 23348100 		sd	s0,8(sp)
 166              		.cfi_offset 8, -8
 167 0008 13040101 		addi	s0,sp,16
 168              		.cfi_def_cfa 8, 0
  33:src/../h/syscall_cpp.hpp **** 
 169              		.loc 1 33 7 is_stmt 0
 170 000c 03348100 		ld	s0,8(sp)
 171              		.cfi_restore 8
GAS LISTING /tmp/ccbnJDEW.s 			page 5


 172              		.cfi_def_cfa 2, 16
 173 0010 13010101 		addi	sp,sp,16
 174              		.cfi_def_cfa_offset 0
 175 0014 67800000 		jr	ra
 176              		.cfi_endproc
 177              	.LFE80:
 179              		.weak	_ZN14PeriodicThreadD1Ev
 180              		.set	_ZN14PeriodicThreadD1Ev,_ZN14PeriodicThreadD2Ev
 181              		.text
 182              		.align	2
 183              		.globl	_ZN14PeriodicThread3runEv
 185              	_ZN14PeriodicThread3runEv:
 186              	.LFB66:
  11:src/syscall_cpp.cpp **** 
  12:src/syscall_cpp.cpp **** 
  13:src/syscall_cpp.cpp **** Thread::Thread(void (*body)(void *), void *arg) {
  14:src/syscall_cpp.cpp **** 
  15:src/syscall_cpp.cpp ****     thread_t * handle = (thread_t*)MemoryAllocator::kmalloc(sizeof(thread_t));
  16:src/syscall_cpp.cpp **** 
  17:src/syscall_cpp.cpp ****     thread_create(handle, body, arg);
  18:src/syscall_cpp.cpp **** 
  19:src/syscall_cpp.cpp ****     myHandle = *handle;
  20:src/syscall_cpp.cpp **** }
  21:src/syscall_cpp.cpp **** 
  22:src/syscall_cpp.cpp **** 
  23:src/syscall_cpp.cpp **** 
  24:src/syscall_cpp.cpp **** 
  25:src/syscall_cpp.cpp **** void Thread::dispatch() {
  26:src/syscall_cpp.cpp **** 
  27:src/syscall_cpp.cpp ****     thread_dispatch();
  28:src/syscall_cpp.cpp **** 
  29:src/syscall_cpp.cpp **** }
  30:src/syscall_cpp.cpp **** 
  31:src/syscall_cpp.cpp **** 
  32:src/syscall_cpp.cpp **** int Thread::start(){
  33:src/syscall_cpp.cpp **** 
  34:src/syscall_cpp.cpp ****    if(myHandle)
  35:src/syscall_cpp.cpp ****        return 1;
  36:src/syscall_cpp.cpp ****    else{
  37:src/syscall_cpp.cpp **** 
  38:src/syscall_cpp.cpp ****        thread_t * handle = (thread_t*)MemoryAllocator::kmalloc(sizeof(thread_t));
  39:src/syscall_cpp.cpp **** 
  40:src/syscall_cpp.cpp ****        myHandle = *handle;
  41:src/syscall_cpp.cpp **** 
  42:src/syscall_cpp.cpp ****        thread_create(handle, wrapper, this);
  43:src/syscall_cpp.cpp **** 
  44:src/syscall_cpp.cpp ****        return 0;
  45:src/syscall_cpp.cpp ****    }
  46:src/syscall_cpp.cpp **** 
  47:src/syscall_cpp.cpp **** }
  48:src/syscall_cpp.cpp **** 
  49:src/syscall_cpp.cpp **** int Thread::sleep (time_t t){
  50:src/syscall_cpp.cpp **** 
  51:src/syscall_cpp.cpp ****     time_sleep(t);
  52:src/syscall_cpp.cpp **** 
  53:src/syscall_cpp.cpp ****     return 0;
  54:src/syscall_cpp.cpp **** 
GAS LISTING /tmp/ccbnJDEW.s 			page 6


  55:src/syscall_cpp.cpp **** };
  56:src/syscall_cpp.cpp **** 
  57:src/syscall_cpp.cpp **** 
  58:src/syscall_cpp.cpp **** void* Thread::operator new (size_t size){
  59:src/syscall_cpp.cpp **** 
  60:src/syscall_cpp.cpp ****     void* ptr = mem_alloc(size);
  61:src/syscall_cpp.cpp **** 
  62:src/syscall_cpp.cpp ****     return ptr;
  63:src/syscall_cpp.cpp **** 
  64:src/syscall_cpp.cpp **** };
  65:src/syscall_cpp.cpp **** 
  66:src/syscall_cpp.cpp **** void Thread::operator delete (void* addr) noexcept{
  67:src/syscall_cpp.cpp ****     mem_free(addr);
  68:src/syscall_cpp.cpp **** };
  69:src/syscall_cpp.cpp **** 
  70:src/syscall_cpp.cpp **** 
  71:src/syscall_cpp.cpp **** PeriodicThread::PeriodicThread(time_t period)
  72:src/syscall_cpp.cpp **** {
  73:src/syscall_cpp.cpp ****     this->period = period;
  74:src/syscall_cpp.cpp **** }
  75:src/syscall_cpp.cpp **** 
  76:src/syscall_cpp.cpp **** 
  77:src/syscall_cpp.cpp **** void PeriodicThread::run(){
 187              		.loc 2 77 27 is_stmt 1
 188              		.cfi_startproc
 189              	.LVL8:
 190 0034 130101FE 		addi	sp,sp,-32
 191              		.cfi_def_cfa_offset 32
 192 0038 233C1100 		sd	ra,24(sp)
 193 003c 23388100 		sd	s0,16(sp)
 194 0040 23349100 		sd	s1,8(sp)
 195              		.cfi_offset 1, -8
 196              		.cfi_offset 8, -16
 197              		.cfi_offset 9, -24
 198 0044 13040102 		addi	s0,sp,32
 199              		.cfi_def_cfa 8, 0
 200 0048 93040500 		mv	s1,a0
 201              	.LVL9:
 202              	.L18:
  78:src/syscall_cpp.cpp **** 
  79:src/syscall_cpp.cpp ****     while(true){
 203              		.loc 2 79 5 discriminator 1
  80:src/syscall_cpp.cpp **** 
  81:src/syscall_cpp.cpp ****         this->periodicActivation();
 204              		.loc 2 81 9 discriminator 1
 205              		.loc 2 81 34 is_stmt 0 discriminator 1
 206 004c 83B70400 		ld	a5,0(s1)
 207 0050 83B78701 		ld	a5,24(a5)
 208              		.loc 2 81 33 discriminator 1
 209 0054 13850400 		mv	a0,s1
 210 0058 E7800700 		jalr	a5
 211              	.LVL10:
  82:src/syscall_cpp.cpp **** 
  83:src/syscall_cpp.cpp ****         time_sleep(period);
 212              		.loc 2 83 9 is_stmt 1 discriminator 1
 213              		.loc 2 83 19 is_stmt 0 discriminator 1
 214 005c 03B50401 		ld	a0,16(s1)
GAS LISTING /tmp/ccbnJDEW.s 			page 7


 215 0060 97000000 		call	_Z10time_sleepm@plt
 215      E7800000 
 216              	.LVL11:
  79:src/syscall_cpp.cpp **** 
 217              		.loc 2 79 5 is_stmt 1 discriminator 1
 218 0068 6FF05FFE 		j	.L18
 219              		.cfi_endproc
 220              	.LFE66:
 222              		.align	2
 223              		.globl	_ZN6ThreadC2EPFvPvES0_
 225              	_ZN6ThreadC2EPFvPvES0_:
 226              	.LFB56:
  13:src/syscall_cpp.cpp **** 
 227              		.loc 2 13 1
 228              		.cfi_startproc
 229              	.LVL12:
 230 006c 130101FD 		addi	sp,sp,-48
 231              		.cfi_def_cfa_offset 48
 232 0070 23341102 		sd	ra,40(sp)
 233 0074 23308102 		sd	s0,32(sp)
 234 0078 233C9100 		sd	s1,24(sp)
 235 007c 23382101 		sd	s2,16(sp)
 236 0080 23343101 		sd	s3,8(sp)
 237 0084 23304101 		sd	s4,0(sp)
 238              		.cfi_offset 1, -8
 239              		.cfi_offset 8, -16
 240              		.cfi_offset 9, -24
 241              		.cfi_offset 18, -32
 242              		.cfi_offset 19, -40
 243              		.cfi_offset 20, -48
 244 0088 13040103 		addi	s0,sp,48
 245              		.cfi_def_cfa 8, 0
 246 008c 93040500 		mv	s1,a0
 247 0090 93890500 		mv	s3,a1
 248 0094 130A0600 		mv	s4,a2
 249              	.LBB20:
  13:src/syscall_cpp.cpp **** 
 250              		.loc 2 13 47 is_stmt 0
 251 0098 97070000 		lla	a5,_ZTV6Thread+16
 251      93870700 
 252 00a0 2330F500 		sd	a5,0(a0)
 253              	.LBB21:
  15:src/syscall_cpp.cpp **** 
 254              		.loc 2 15 5 is_stmt 1
  15:src/syscall_cpp.cpp **** 
 255              		.loc 2 15 60 is_stmt 0
 256 00a4 13058000 		li	a0,8
 257              	.LVL13:
 258 00a8 97000000 		call	_ZN15MemoryAllocator7kmallocEm@plt
 258      E7800000 
 259              	.LVL14:
 260 00b0 13090500 		mv	s2,a0
 261              	.LVL15:
  17:src/syscall_cpp.cpp **** 
 262              		.loc 2 17 5 is_stmt 1
  17:src/syscall_cpp.cpp **** 
 263              		.loc 2 17 18 is_stmt 0
GAS LISTING /tmp/ccbnJDEW.s 			page 8


 264 00b4 13060A00 		mv	a2,s4
 265 00b8 93850900 		mv	a1,s3
 266 00bc 97000000 		call	_Z13thread_createPP3TCBPFvPvES2_@plt
 266      E7800000 
 267              	.LVL16:
  19:src/syscall_cpp.cpp **** }
 268              		.loc 2 19 5 is_stmt 1
  19:src/syscall_cpp.cpp **** }
 269              		.loc 2 19 14 is_stmt 0
 270 00c4 83370900 		ld	a5,0(s2)
 271 00c8 23B4F400 		sd	a5,8(s1)
 272              	.LBE21:
 273              	.LBE20:
  20:src/syscall_cpp.cpp **** 
 274              		.loc 2 20 1
 275 00cc 83308102 		ld	ra,40(sp)
 276              		.cfi_restore 1
 277 00d0 03340102 		ld	s0,32(sp)
 278              		.cfi_restore 8
 279              		.cfi_def_cfa 2, 48
 280 00d4 83348101 		ld	s1,24(sp)
 281              		.cfi_restore 9
 282              	.LVL17:
 283 00d8 03390101 		ld	s2,16(sp)
 284              		.cfi_restore 18
 285              	.LVL18:
 286 00dc 83398100 		ld	s3,8(sp)
 287              		.cfi_restore 19
 288              	.LVL19:
 289 00e0 033A0100 		ld	s4,0(sp)
 290              		.cfi_restore 20
 291              	.LVL20:
 292 00e4 13010103 		addi	sp,sp,48
 293              		.cfi_def_cfa_offset 0
 294 00e8 67800000 		jr	ra
 295              		.cfi_endproc
 296              	.LFE56:
 298              		.globl	_ZN6ThreadC1EPFvPvES0_
 299              		.set	_ZN6ThreadC1EPFvPvES0_,_ZN6ThreadC2EPFvPvES0_
 300              		.align	2
 301              		.globl	_ZN6Thread8dispatchEv
 303              	_ZN6Thread8dispatchEv:
 304              	.LFB58:
  25:src/syscall_cpp.cpp **** 
 305              		.loc 2 25 25 is_stmt 1
 306              		.cfi_startproc
 307 00ec 130101FF 		addi	sp,sp,-16
 308              		.cfi_def_cfa_offset 16
 309 00f0 23341100 		sd	ra,8(sp)
 310 00f4 23308100 		sd	s0,0(sp)
 311              		.cfi_offset 1, -8
 312              		.cfi_offset 8, -16
 313 00f8 13040101 		addi	s0,sp,16
 314              		.cfi_def_cfa 8, 0
  27:src/syscall_cpp.cpp **** 
 315              		.loc 2 27 5
  27:src/syscall_cpp.cpp **** 
GAS LISTING /tmp/ccbnJDEW.s 			page 9


 316              		.loc 2 27 20 is_stmt 0
 317 00fc 97000000 		call	_Z15thread_dispatchv@plt
 317      E7800000 
 318              	.LVL21:
  29:src/syscall_cpp.cpp **** 
 319              		.loc 2 29 1
 320 0104 83308100 		ld	ra,8(sp)
 321              		.cfi_restore 1
 322 0108 03340100 		ld	s0,0(sp)
 323              		.cfi_restore 8
 324              		.cfi_def_cfa 2, 16
 325 010c 13010101 		addi	sp,sp,16
 326              		.cfi_def_cfa_offset 0
 327 0110 67800000 		jr	ra
 328              		.cfi_endproc
 329              	.LFE58:
 331              		.align	2
 332              		.globl	_ZN6Thread5startEv
 334              	_ZN6Thread5startEv:
 335              	.LFB59:
  32:src/syscall_cpp.cpp **** 
 336              		.loc 2 32 20 is_stmt 1
 337              		.cfi_startproc
 338              	.LVL22:
  34:src/syscall_cpp.cpp ****        return 1;
 339              		.loc 2 34 4
 340              	.LBB22:
  34:src/syscall_cpp.cpp ****        return 1;
 341              		.loc 2 34 7 is_stmt 0
 342 0114 83378500 		ld	a5,8(a0)
  34:src/syscall_cpp.cpp ****        return 1;
 343              		.loc 2 34 4
 344 0118 63860700 		beqz	a5,.L31
  35:src/syscall_cpp.cpp ****    else{
 345              		.loc 2 35 15
 346 011c 13051000 		li	a0,1
 347              	.LVL23:
 348              	.LBE22:
  47:src/syscall_cpp.cpp **** 
 349              		.loc 2 47 1
 350 0120 67800000 		ret
 351              	.LVL24:
 352              	.L31:
  32:src/syscall_cpp.cpp **** 
 353              		.loc 2 32 20
 354 0124 130101FE 		addi	sp,sp,-32
 355              		.cfi_def_cfa_offset 32
 356 0128 233C1100 		sd	ra,24(sp)
 357 012c 23388100 		sd	s0,16(sp)
 358 0130 23349100 		sd	s1,8(sp)
 359              		.cfi_offset 1, -8
 360              		.cfi_offset 8, -16
 361              		.cfi_offset 9, -24
 362 0134 13040102 		addi	s0,sp,32
 363              		.cfi_def_cfa 8, 0
 364 0138 93040500 		mv	s1,a0
 365              	.LBB24:
GAS LISTING /tmp/ccbnJDEW.s 			page 10


 366              	.LBB23:
  38:src/syscall_cpp.cpp **** 
 367              		.loc 2 38 8 is_stmt 1
  38:src/syscall_cpp.cpp **** 
 368              		.loc 2 38 63 is_stmt 0
 369 013c 13058000 		li	a0,8
 370              	.LVL25:
 371 0140 97000000 		call	_ZN15MemoryAllocator7kmallocEm@plt
 371      E7800000 
 372              	.LVL26:
  40:src/syscall_cpp.cpp **** 
 373              		.loc 2 40 8 is_stmt 1
  40:src/syscall_cpp.cpp **** 
 374              		.loc 2 40 19 is_stmt 0
 375 0148 83370500 		ld	a5,0(a0)
  40:src/syscall_cpp.cpp **** 
 376              		.loc 2 40 17
 377 014c 23B4F400 		sd	a5,8(s1)
  42:src/syscall_cpp.cpp **** 
 378              		.loc 2 42 8 is_stmt 1
  42:src/syscall_cpp.cpp **** 
 379              		.loc 2 42 21 is_stmt 0
 380 0150 13860400 		mv	a2,s1
 381 0154 97050000 		lla	a1,_ZN6Thread7wrapperEPv
 381      93850500 
 382 015c 97000000 		call	_Z13thread_createPP3TCBPFvPvES2_@plt
 382      E7800000 
 383              	.LVL27:
  44:src/syscall_cpp.cpp ****    }
 384              		.loc 2 44 8 is_stmt 1
  44:src/syscall_cpp.cpp ****    }
 385              		.loc 2 44 15 is_stmt 0
 386 0164 13050000 		li	a0,0
 387              	.LBE23:
 388              	.LBE24:
  47:src/syscall_cpp.cpp **** 
 389              		.loc 2 47 1
 390 0168 83308101 		ld	ra,24(sp)
 391              		.cfi_restore 1
 392 016c 03340101 		ld	s0,16(sp)
 393              		.cfi_restore 8
 394              		.cfi_def_cfa 2, 32
 395 0170 83348100 		ld	s1,8(sp)
 396              		.cfi_restore 9
 397              	.LVL28:
 398 0174 13010102 		addi	sp,sp,32
 399              		.cfi_def_cfa_offset 0
 400 0178 67800000 		jr	ra
 401              		.cfi_endproc
 402              	.LFE59:
 404              		.align	2
 405              		.globl	_ZN6Thread5sleepEm
 407              	_ZN6Thread5sleepEm:
 408              	.LFB60:
  49:src/syscall_cpp.cpp **** 
 409              		.loc 2 49 29 is_stmt 1
 410              		.cfi_startproc
GAS LISTING /tmp/ccbnJDEW.s 			page 11


 411              	.LVL29:
 412 017c 130101FF 		addi	sp,sp,-16
 413              		.cfi_def_cfa_offset 16
 414 0180 23341100 		sd	ra,8(sp)
 415 0184 23308100 		sd	s0,0(sp)
 416              		.cfi_offset 1, -8
 417              		.cfi_offset 8, -16
 418 0188 13040101 		addi	s0,sp,16
 419              		.cfi_def_cfa 8, 0
  51:src/syscall_cpp.cpp **** 
 420              		.loc 2 51 5
  51:src/syscall_cpp.cpp **** 
 421              		.loc 2 51 15 is_stmt 0
 422 018c 97000000 		call	_Z10time_sleepm@plt
 422      E7800000 
 423              	.LVL30:
  53:src/syscall_cpp.cpp **** 
 424              		.loc 2 53 5 is_stmt 1
  55:src/syscall_cpp.cpp **** 
 425              		.loc 2 55 1 is_stmt 0
 426 0194 13050000 		li	a0,0
 427 0198 83308100 		ld	ra,8(sp)
 428              		.cfi_restore 1
 429 019c 03340100 		ld	s0,0(sp)
 430              		.cfi_restore 8
 431              		.cfi_def_cfa 2, 16
 432 01a0 13010101 		addi	sp,sp,16
 433              		.cfi_def_cfa_offset 0
 434 01a4 67800000 		jr	ra
 435              		.cfi_endproc
 436              	.LFE60:
 438              		.align	2
 439              		.globl	_ZN6ThreadnwEm
 441              	_ZN6ThreadnwEm:
 442              	.LFB61:
  58:src/syscall_cpp.cpp **** 
 443              		.loc 2 58 41 is_stmt 1
 444              		.cfi_startproc
 445              	.LVL31:
 446 01a8 130101FF 		addi	sp,sp,-16
 447              		.cfi_def_cfa_offset 16
 448 01ac 23341100 		sd	ra,8(sp)
 449 01b0 23308100 		sd	s0,0(sp)
 450              		.cfi_offset 1, -8
 451              		.cfi_offset 8, -16
 452 01b4 13040101 		addi	s0,sp,16
 453              		.cfi_def_cfa 8, 0
  60:src/syscall_cpp.cpp **** 
 454              		.loc 2 60 5
  60:src/syscall_cpp.cpp **** 
 455              		.loc 2 60 26 is_stmt 0
 456 01b8 97000000 		call	_Z9mem_allocm@plt
 456      E7800000 
 457              	.LVL32:
  62:src/syscall_cpp.cpp **** 
 458              		.loc 2 62 5 is_stmt 1
  64:src/syscall_cpp.cpp **** 
GAS LISTING /tmp/ccbnJDEW.s 			page 12


 459              		.loc 2 64 1 is_stmt 0
 460 01c0 83308100 		ld	ra,8(sp)
 461              		.cfi_restore 1
 462 01c4 03340100 		ld	s0,0(sp)
 463              		.cfi_restore 8
 464              		.cfi_def_cfa 2, 16
 465 01c8 13010101 		addi	sp,sp,16
 466              		.cfi_def_cfa_offset 0
 467 01cc 67800000 		jr	ra
 468              		.cfi_endproc
 469              	.LFE61:
 471              		.align	2
 472              		.globl	_ZN6ThreaddlEPv
 474              	_ZN6ThreaddlEPv:
 475              	.LFB62:
  66:src/syscall_cpp.cpp ****     mem_free(addr);
 476              		.loc 2 66 51 is_stmt 1
 477              		.cfi_startproc
 478              		.cfi_personality 0x9b,DW.ref.__gxx_personality_v0
 479              		.cfi_lsda 0x1b,.LLSDA62
 480              	.LVL33:
 481 01d0 130101FF 		addi	sp,sp,-16
 482              		.cfi_def_cfa_offset 16
 483 01d4 23341100 		sd	ra,8(sp)
 484 01d8 23308100 		sd	s0,0(sp)
 485              		.cfi_offset 1, -8
 486              		.cfi_offset 8, -16
 487 01dc 13040101 		addi	s0,sp,16
 488              		.cfi_def_cfa 8, 0
  67:src/syscall_cpp.cpp **** };
 489              		.loc 2 67 5
  67:src/syscall_cpp.cpp **** };
 490              		.loc 2 67 13 is_stmt 0
 491 01e0 97000000 		call	_Z8mem_freePv@plt
 491      E7800000 
 492              	.LVL34:
  68:src/syscall_cpp.cpp **** 
 493              		.loc 2 68 1
 494 01e8 83308100 		ld	ra,8(sp)
 495              		.cfi_restore 1
 496 01ec 03340100 		ld	s0,0(sp)
 497              		.cfi_restore 8
 498              		.cfi_def_cfa 2, 16
 499 01f0 13010101 		addi	sp,sp,16
 500              		.cfi_def_cfa_offset 0
 501 01f4 67800000 		jr	ra
 502              		.cfi_endproc
 503              	.LFE62:
 504              		.globl	__gxx_personality_v0
 505              		.section	.gcc_except_table,"a",@progbits
 506              	.LLSDA62:
 507 0000 FF       		.byte	0xff
 508 0001 FF       		.byte	0xff
 509 0002 03       		.byte	0x3
 510 0003 00       		.byte	0
 511              		.text
 513              		.section	.text._ZN6ThreadD0Ev,"axG",@progbits,_ZN6ThreadD5Ev,comdat
GAS LISTING /tmp/ccbnJDEW.s 			page 13


 514              		.align	2
 515              		.weak	_ZN6ThreadD0Ev
 517              	_ZN6ThreadD0Ev:
 518              	.LFB44:
  15:src/../h/syscall_cpp.hpp ****     int start ();
 519              		.loc 1 15 13 is_stmt 1
 520              		.cfi_startproc
 521              	.LVL35:
 522 0000 130101FF 		addi	sp,sp,-16
 523              		.cfi_def_cfa_offset 16
 524 0004 23341100 		sd	ra,8(sp)
 525 0008 23308100 		sd	s0,0(sp)
 526              		.cfi_offset 1, -8
 527              		.cfi_offset 8, -16
 528 000c 13040101 		addi	s0,sp,16
 529              		.cfi_def_cfa 8, 0
  15:src/../h/syscall_cpp.hpp ****     int start ();
 530              		.loc 1 15 24 is_stmt 0
 531 0010 97000000 		call	_ZN6ThreaddlEPv
 531      E7800000 
 532              	.LVL36:
 533 0018 83308100 		ld	ra,8(sp)
 534              		.cfi_restore 1
 535 001c 03340100 		ld	s0,0(sp)
 536              		.cfi_restore 8
 537              		.cfi_def_cfa 2, 16
 538 0020 13010101 		addi	sp,sp,16
 539              		.cfi_def_cfa_offset 0
 540 0024 67800000 		jr	ra
 541              		.cfi_endproc
 542              	.LFE44:
 544              		.section	.text._ZN14PeriodicThreadD0Ev,"axG",@progbits,_ZN14PeriodicThreadD5Ev,comdat
 545              		.align	2
 546              		.weak	_ZN14PeriodicThreadD0Ev
 548              	_ZN14PeriodicThreadD0Ev:
 549              	.LFB82:
  33:src/../h/syscall_cpp.hpp **** 
 550              		.loc 1 33 7 is_stmt 1
 551              		.cfi_startproc
 552              	.LVL37:
 553 0000 130101FF 		addi	sp,sp,-16
 554              		.cfi_def_cfa_offset 16
 555 0004 23341100 		sd	ra,8(sp)
 556 0008 23308100 		sd	s0,0(sp)
 557              		.cfi_offset 1, -8
 558              		.cfi_offset 8, -16
 559 000c 13040101 		addi	s0,sp,16
 560              		.cfi_def_cfa 8, 0
  33:src/../h/syscall_cpp.hpp **** 
 561              		.loc 1 33 7 is_stmt 0
 562 0010 97000000 		call	_ZN6ThreaddlEPv
 562      E7800000 
 563              	.LVL38:
 564 0018 83308100 		ld	ra,8(sp)
 565              		.cfi_restore 1
 566 001c 03340100 		ld	s0,0(sp)
 567              		.cfi_restore 8
GAS LISTING /tmp/ccbnJDEW.s 			page 14


 568              		.cfi_def_cfa 2, 16
 569 0020 13010101 		addi	sp,sp,16
 570              		.cfi_def_cfa_offset 0
 571 0024 67800000 		jr	ra
 572              		.cfi_endproc
 573              	.LFE82:
 575              		.text
 576              		.align	2
 577              		.globl	_ZN14PeriodicThreadC2Em
 579              	_ZN14PeriodicThreadC2Em:
 580              	.LFB64:
  71:src/syscall_cpp.cpp **** {
 581              		.loc 2 71 1 is_stmt 1
 582              		.cfi_startproc
 583              	.LVL39:
 584 01f8 130101FF 		addi	sp,sp,-16
 585              		.cfi_def_cfa_offset 16
 586 01fc 23348100 		sd	s0,8(sp)
 587              		.cfi_offset 8, -8
 588 0200 13040101 		addi	s0,sp,16
 589              		.cfi_def_cfa 8, 0
 590              	.LVL40:
 591              	.LBB25:
 592              	.LBB26:
 593              	.LBB27:
  27:src/../h/syscall_cpp.hpp ****     virtual void run () {}
 594              		.loc 1 27 33 is_stmt 0
 595 0204 23340500 		sd	zero,8(a0)
 596              	.LVL41:
 597              	.LBE27:
 598              	.LBE26:
  71:src/syscall_cpp.cpp **** {
 599              		.loc 2 71 45
 600 0208 97070000 		lla	a5,_ZTV14PeriodicThread+16
 600      93870700 
 601 0210 2330F500 		sd	a5,0(a0)
  73:src/syscall_cpp.cpp **** }
 602              		.loc 2 73 5 is_stmt 1
  73:src/syscall_cpp.cpp **** }
 603              		.loc 2 73 18 is_stmt 0
 604 0214 2338B500 		sd	a1,16(a0)
 605              	.LBE25:
  74:src/syscall_cpp.cpp **** 
 606              		.loc 2 74 1
 607 0218 03348100 		ld	s0,8(sp)
 608              		.cfi_restore 8
 609              		.cfi_def_cfa 2, 16
 610 021c 13010101 		addi	sp,sp,16
 611              		.cfi_def_cfa_offset 0
 612 0220 67800000 		jr	ra
 613              		.cfi_endproc
 614              	.LFE64:
 616              		.globl	_ZN14PeriodicThreadC1Em
 617              		.set	_ZN14PeriodicThreadC1Em,_ZN14PeriodicThreadC2Em
 618              		.align	2
 619              		.globl	_ZN9SemaphoreC2Ei
 621              	_ZN9SemaphoreC2Ei:
GAS LISTING /tmp/ccbnJDEW.s 			page 15


 622              	.LFB68:
  84:src/syscall_cpp.cpp **** 
  85:src/syscall_cpp.cpp ****     }
  86:src/syscall_cpp.cpp **** 
  87:src/syscall_cpp.cpp **** 
  88:src/syscall_cpp.cpp **** }
  89:src/syscall_cpp.cpp **** 
  90:src/syscall_cpp.cpp **** 
  91:src/syscall_cpp.cpp **** 
  92:src/syscall_cpp.cpp **** Semaphore::Semaphore(signed init) {
 623              		.loc 2 92 1 is_stmt 1
 624              		.cfi_startproc
 625              	.LVL42:
 626 0224 130101FD 		addi	sp,sp,-48
 627              		.cfi_def_cfa_offset 48
 628 0228 23341102 		sd	ra,40(sp)
 629 022c 23308102 		sd	s0,32(sp)
 630 0230 233C9100 		sd	s1,24(sp)
 631 0234 23382101 		sd	s2,16(sp)
 632 0238 23343101 		sd	s3,8(sp)
 633              		.cfi_offset 1, -8
 634              		.cfi_offset 8, -16
 635              		.cfi_offset 9, -24
 636              		.cfi_offset 18, -32
 637              		.cfi_offset 19, -40
 638 023c 13040103 		addi	s0,sp,48
 639              		.cfi_def_cfa 8, 0
 640 0240 93040500 		mv	s1,a0
 641 0244 93890500 		mv	s3,a1
 642              	.LBB28:
 643              		.loc 2 92 33 is_stmt 0
 644 0248 97070000 		lla	a5,_ZTV9Semaphore+16
 644      93870700 
 645 0250 2330F500 		sd	a5,0(a0)
 646              	.LBB29:
  93:src/syscall_cpp.cpp **** 
  94:src/syscall_cpp.cpp ****     sem_t* handle = (sem_t*)mem_alloc(sizeof(sem_t));
 647              		.loc 2 94 5 is_stmt 1
 648              		.loc 2 94 38 is_stmt 0
 649 0254 13058000 		li	a0,8
 650              	.LVL43:
 651 0258 97000000 		call	_Z9mem_allocm@plt
 651      E7800000 
 652              	.LVL44:
 653 0260 13090500 		mv	s2,a0
 654              	.LVL45:
  95:src/syscall_cpp.cpp **** 
  96:src/syscall_cpp.cpp ****     sem_open(handle, init);
 655              		.loc 2 96 5 is_stmt 1
 656              		.loc 2 96 13 is_stmt 0
 657 0264 93850900 		mv	a1,s3
 658 0268 97000000 		call	_Z8sem_openPP10kSemaphorej@plt
 658      E7800000 
 659              	.LVL46:
  97:src/syscall_cpp.cpp **** 
  98:src/syscall_cpp.cpp ****     myHandle = *handle;
 660              		.loc 2 98 5 is_stmt 1
GAS LISTING /tmp/ccbnJDEW.s 			page 16


 661              		.loc 2 98 14 is_stmt 0
 662 0270 83370900 		ld	a5,0(s2)
 663 0274 23B4F400 		sd	a5,8(s1)
 664              	.LBE29:
 665              	.LBE28:
  99:src/syscall_cpp.cpp **** }
 666              		.loc 2 99 1
 667 0278 83308102 		ld	ra,40(sp)
 668              		.cfi_restore 1
 669 027c 03340102 		ld	s0,32(sp)
 670              		.cfi_restore 8
 671              		.cfi_def_cfa 2, 48
 672 0280 83348101 		ld	s1,24(sp)
 673              		.cfi_restore 9
 674              	.LVL47:
 675 0284 03390101 		ld	s2,16(sp)
 676              		.cfi_restore 18
 677              	.LVL48:
 678 0288 83398100 		ld	s3,8(sp)
 679              		.cfi_restore 19
 680 028c 13010103 		addi	sp,sp,48
 681              		.cfi_def_cfa_offset 0
 682 0290 67800000 		jr	ra
 683              		.cfi_endproc
 684              	.LFE68:
 686              		.globl	_ZN9SemaphoreC1Ei
 687              		.set	_ZN9SemaphoreC1Ei,_ZN9SemaphoreC2Ei
 688              		.align	2
 689              		.globl	_ZN9Semaphore4waitEv
 691              	_ZN9Semaphore4waitEv:
 692              	.LFB70:
 100:src/syscall_cpp.cpp **** 
 101:src/syscall_cpp.cpp **** int Semaphore::wait() {
 693              		.loc 2 101 23 is_stmt 1
 694              		.cfi_startproc
 695              	.LVL49:
 696 0294 130101FF 		addi	sp,sp,-16
 697              		.cfi_def_cfa_offset 16
 698 0298 23341100 		sd	ra,8(sp)
 699 029c 23308100 		sd	s0,0(sp)
 700              		.cfi_offset 1, -8
 701              		.cfi_offset 8, -16
 702 02a0 13040101 		addi	s0,sp,16
 703              		.cfi_def_cfa 8, 0
 102:src/syscall_cpp.cpp **** 
 103:src/syscall_cpp.cpp ****     return sem_wait(myHandle);
 704              		.loc 2 103 5
 705              		.loc 2 103 20 is_stmt 0
 706 02a4 03358500 		ld	a0,8(a0)
 707              	.LVL50:
 708 02a8 97000000 		call	_Z8sem_waitP10kSemaphore@plt
 708      E7800000 
 709              	.LVL51:
 104:src/syscall_cpp.cpp **** 
 105:src/syscall_cpp.cpp **** }
 710              		.loc 2 105 1
 711 02b0 83308100 		ld	ra,8(sp)
GAS LISTING /tmp/ccbnJDEW.s 			page 17


 712              		.cfi_restore 1
 713 02b4 03340100 		ld	s0,0(sp)
 714              		.cfi_restore 8
 715              		.cfi_def_cfa 2, 16
 716 02b8 13010101 		addi	sp,sp,16
 717              		.cfi_def_cfa_offset 0
 718 02bc 67800000 		jr	ra
 719              		.cfi_endproc
 720              	.LFE70:
 722              		.align	2
 723              		.globl	_ZN9Semaphore6signalEv
 725              	_ZN9Semaphore6signalEv:
 726              	.LFB71:
 106:src/syscall_cpp.cpp **** 
 107:src/syscall_cpp.cpp **** int Semaphore::signal() {
 727              		.loc 2 107 25 is_stmt 1
 728              		.cfi_startproc
 729              	.LVL52:
 730 02c0 130101FF 		addi	sp,sp,-16
 731              		.cfi_def_cfa_offset 16
 732 02c4 23341100 		sd	ra,8(sp)
 733 02c8 23308100 		sd	s0,0(sp)
 734              		.cfi_offset 1, -8
 735              		.cfi_offset 8, -16
 736 02cc 13040101 		addi	s0,sp,16
 737              		.cfi_def_cfa 8, 0
 108:src/syscall_cpp.cpp **** 
 109:src/syscall_cpp.cpp ****     return sem_signal(myHandle);
 738              		.loc 2 109 5
 739              		.loc 2 109 22 is_stmt 0
 740 02d0 03358500 		ld	a0,8(a0)
 741              	.LVL53:
 742 02d4 97000000 		call	_Z10sem_signalP10kSemaphore@plt
 742      E7800000 
 743              	.LVL54:
 110:src/syscall_cpp.cpp **** 
 111:src/syscall_cpp.cpp **** }
 744              		.loc 2 111 1
 745 02dc 83308100 		ld	ra,8(sp)
 746              		.cfi_restore 1
 747 02e0 03340100 		ld	s0,0(sp)
 748              		.cfi_restore 8
 749              		.cfi_def_cfa 2, 16
 750 02e4 13010101 		addi	sp,sp,16
 751              		.cfi_def_cfa_offset 0
 752 02e8 67800000 		jr	ra
 753              		.cfi_endproc
 754              	.LFE71:
 756              		.align	2
 757              		.globl	_ZN9SemaphorenwEm
 759              	_ZN9SemaphorenwEm:
 760              	.LFB72:
 112:src/syscall_cpp.cpp **** 
 113:src/syscall_cpp.cpp **** void* Semaphore::operator new (size_t size){
 761              		.loc 2 113 44 is_stmt 1
 762              		.cfi_startproc
 763              	.LVL55:
GAS LISTING /tmp/ccbnJDEW.s 			page 18


 764 02ec 130101FF 		addi	sp,sp,-16
 765              		.cfi_def_cfa_offset 16
 766 02f0 23341100 		sd	ra,8(sp)
 767 02f4 23308100 		sd	s0,0(sp)
 768              		.cfi_offset 1, -8
 769              		.cfi_offset 8, -16
 770 02f8 13040101 		addi	s0,sp,16
 771              		.cfi_def_cfa 8, 0
 114:src/syscall_cpp.cpp **** 
 115:src/syscall_cpp.cpp ****     void* ptr = mem_alloc(size);
 772              		.loc 2 115 5
 773              		.loc 2 115 26 is_stmt 0
 774 02fc 97000000 		call	_Z9mem_allocm@plt
 774      E7800000 
 775              	.LVL56:
 116:src/syscall_cpp.cpp **** 
 117:src/syscall_cpp.cpp ****     return ptr;
 776              		.loc 2 117 5 is_stmt 1
 118:src/syscall_cpp.cpp **** };
 777              		.loc 2 118 1 is_stmt 0
 778 0304 83308100 		ld	ra,8(sp)
 779              		.cfi_restore 1
 780 0308 03340100 		ld	s0,0(sp)
 781              		.cfi_restore 8
 782              		.cfi_def_cfa 2, 16
 783 030c 13010101 		addi	sp,sp,16
 784              		.cfi_def_cfa_offset 0
 785 0310 67800000 		jr	ra
 786              		.cfi_endproc
 787              	.LFE72:
 789              		.align	2
 790              		.globl	_ZN9SemaphoredlEPv
 792              	_ZN9SemaphoredlEPv:
 793              	.LFB73:
 119:src/syscall_cpp.cpp **** void Semaphore::operator delete (void* addr) noexcept{
 794              		.loc 2 119 54 is_stmt 1
 795              		.cfi_startproc
 796              		.cfi_personality 0x9b,DW.ref.__gxx_personality_v0
 797              		.cfi_lsda 0x1b,.LLSDA73
 798              	.LVL57:
 799 0314 130101FF 		addi	sp,sp,-16
 800              		.cfi_def_cfa_offset 16
 801 0318 23341100 		sd	ra,8(sp)
 802 031c 23308100 		sd	s0,0(sp)
 803              		.cfi_offset 1, -8
 804              		.cfi_offset 8, -16
 805 0320 13040101 		addi	s0,sp,16
 806              		.cfi_def_cfa 8, 0
 120:src/syscall_cpp.cpp **** 
 121:src/syscall_cpp.cpp ****     mem_free(addr);
 807              		.loc 2 121 5
 808              		.loc 2 121 13 is_stmt 0
 809 0324 97000000 		call	_Z8mem_freePv@plt
 809      E7800000 
 810              	.LVL58:
 122:src/syscall_cpp.cpp **** 
 123:src/syscall_cpp.cpp **** };
GAS LISTING /tmp/ccbnJDEW.s 			page 19


 811              		.loc 2 123 1
 812 032c 83308100 		ld	ra,8(sp)
 813              		.cfi_restore 1
 814 0330 03340100 		ld	s0,0(sp)
 815              		.cfi_restore 8
 816              		.cfi_def_cfa 2, 16
 817 0334 13010101 		addi	sp,sp,16
 818              		.cfi_def_cfa_offset 0
 819 0338 67800000 		jr	ra
 820              		.cfi_endproc
 821              	.LFE73:
 822              		.section	.gcc_except_table
 823              	.LLSDA73:
 824 0004 FF       		.byte	0xff
 825 0005 FF       		.byte	0xff
 826 0006 03       		.byte	0x3
 827 0007 00       		.byte	0
 828              		.text
 830              		.section	.text._ZN9SemaphoreD0Ev,"axG",@progbits,_ZN9SemaphoreD5Ev,comdat
 831              		.align	2
 832              		.weak	_ZN9SemaphoreD0Ev
 834              	_ZN9SemaphoreD0Ev:
 835              	.LFB53:
 836              		.loc 1 55 13 is_stmt 1
 837              		.cfi_startproc
 838              	.LVL59:
 839 0000 130101FF 		addi	sp,sp,-16
 840              		.cfi_def_cfa_offset 16
 841 0004 23341100 		sd	ra,8(sp)
 842 0008 23308100 		sd	s0,0(sp)
 843              		.cfi_offset 1, -8
 844              		.cfi_offset 8, -16
 845 000c 13040101 		addi	s0,sp,16
 846              		.cfi_def_cfa 8, 0
 847              		.loc 1 55 27 is_stmt 0
 848 0010 97000000 		call	_ZN9SemaphoredlEPv
 848      E7800000 
 849              	.LVL60:
 850 0018 83308100 		ld	ra,8(sp)
 851              		.cfi_restore 1
 852 001c 03340100 		ld	s0,0(sp)
 853              		.cfi_restore 8
 854              		.cfi_def_cfa 2, 16
 855 0020 13010101 		addi	sp,sp,16
 856              		.cfi_def_cfa_offset 0
 857 0024 67800000 		jr	ra
 858              		.cfi_endproc
 859              	.LFE53:
 861              		.text
 862              		.align	2
 863              		.globl	_ZN7Console4getcEv
 865              	_ZN7Console4getcEv:
 866              	.LFB74:
 124:src/syscall_cpp.cpp **** 
 125:src/syscall_cpp.cpp **** char Console::getc() {
 867              		.loc 2 125 22 is_stmt 1
 868              		.cfi_startproc
GAS LISTING /tmp/ccbnJDEW.s 			page 20


 869 033c 130101FF 		addi	sp,sp,-16
 870              		.cfi_def_cfa_offset 16
 871 0340 23341100 		sd	ra,8(sp)
 872 0344 23308100 		sd	s0,0(sp)
 873              		.cfi_offset 1, -8
 874              		.cfi_offset 8, -16
 875 0348 13040101 		addi	s0,sp,16
 876              		.cfi_def_cfa 8, 0
 126:src/syscall_cpp.cpp **** 
 127:src/syscall_cpp.cpp ****     char c = ::getc();
 877              		.loc 2 127 5
 878              		.loc 2 127 20 is_stmt 0
 879 034c 97000000 		call	_Z4getcv@plt
 879      E7800000 
 880              	.LVL61:
 128:src/syscall_cpp.cpp **** 
 129:src/syscall_cpp.cpp ****     return c;
 881              		.loc 2 129 5 is_stmt 1
 130:src/syscall_cpp.cpp **** 
 131:src/syscall_cpp.cpp **** }
 882              		.loc 2 131 1 is_stmt 0
 883 0354 83308100 		ld	ra,8(sp)
 884              		.cfi_restore 1
 885 0358 03340100 		ld	s0,0(sp)
 886              		.cfi_restore 8
 887              		.cfi_def_cfa 2, 16
 888 035c 13010101 		addi	sp,sp,16
 889              		.cfi_def_cfa_offset 0
 890 0360 67800000 		jr	ra
 891              		.cfi_endproc
 892              	.LFE74:
 894              		.align	2
 895              		.globl	_ZN7Console4putcEc
 897              	_ZN7Console4putcEc:
 898              	.LFB75:
 132:src/syscall_cpp.cpp **** 
 133:src/syscall_cpp.cpp **** void Console::putc(char c) {
 899              		.loc 2 133 28 is_stmt 1
 900              		.cfi_startproc
 901              	.LVL62:
 902 0364 130101FF 		addi	sp,sp,-16
 903              		.cfi_def_cfa_offset 16
 904 0368 23341100 		sd	ra,8(sp)
 905 036c 23308100 		sd	s0,0(sp)
 906              		.cfi_offset 1, -8
 907              		.cfi_offset 8, -16
 908 0370 13040101 		addi	s0,sp,16
 909              		.cfi_def_cfa 8, 0
 134:src/syscall_cpp.cpp **** 
 135:src/syscall_cpp.cpp ****     ::putc(c);
 910              		.loc 2 135 5
 911              		.loc 2 135 11 is_stmt 0
 912 0374 97000000 		call	_Z4putcc@plt
 912      E7800000 
 913              	.LVL63:
 136:src/syscall_cpp.cpp **** }
 914              		.loc 2 136 1
GAS LISTING /tmp/ccbnJDEW.s 			page 21


 915 037c 83308100 		ld	ra,8(sp)
 916              		.cfi_restore 1
 917 0380 03340100 		ld	s0,0(sp)
 918              		.cfi_restore 8
 919              		.cfi_def_cfa 2, 16
 920 0384 13010101 		addi	sp,sp,16
 921              		.cfi_def_cfa_offset 0
 922 0388 67800000 		jr	ra
 923              		.cfi_endproc
 924              	.LFE75:
 926              		.weak	_ZTV6Thread
 927              		.section	.data.rel.ro.local._ZTV6Thread,"awG",@progbits,_ZTV6Thread,comdat
 928              		.align	3
 931              	_ZTV6Thread:
 932 0000 00000000 		.dword	0
 932      00000000 
 933 0008 00000000 		.dword	0
 933      00000000 
 934 0010 00000000 		.dword	_ZN6ThreadD1Ev
 934      00000000 
 935 0018 00000000 		.dword	_ZN6ThreadD0Ev
 935      00000000 
 936 0020 00000000 		.dword	_ZN6Thread3runEv
 936      00000000 
 937              		.weak	_ZTV9Semaphore
 938              		.section	.data.rel.ro.local._ZTV9Semaphore,"awG",@progbits,_ZTV9Semaphore,comdat
 939              		.align	3
 942              	_ZTV9Semaphore:
 943 0000 00000000 		.dword	0
 943      00000000 
 944 0008 00000000 		.dword	0
 944      00000000 
 945 0010 00000000 		.dword	_ZN9SemaphoreD1Ev
 945      00000000 
 946 0018 00000000 		.dword	_ZN9SemaphoreD0Ev
 946      00000000 
 947              		.weak	_ZTV14PeriodicThread
 948              		.section	.data.rel.ro.local._ZTV14PeriodicThread,"awG",@progbits,_ZTV14PeriodicThread,comdat
 949              		.align	3
 952              	_ZTV14PeriodicThread:
 953 0000 00000000 		.dword	0
 953      00000000 
 954 0008 00000000 		.dword	0
 954      00000000 
 955 0010 00000000 		.dword	_ZN14PeriodicThreadD1Ev
 955      00000000 
 956 0018 00000000 		.dword	_ZN14PeriodicThreadD0Ev
 956      00000000 
 957 0020 00000000 		.dword	_ZN14PeriodicThread3runEv
 957      00000000 
 958 0028 00000000 		.dword	_ZN14PeriodicThread18periodicActivationEv
 958      00000000 
 959              		.text
 960              	.Letext0:
 961              		.file 3 "src/../h/../lib/hw.h"
 962              		.file 4 "src/../h/../h/../h/../h/MemoryAllocator.hpp"
 963              		.file 5 "src/../h/../h/TCB.hpp"
GAS LISTING /tmp/ccbnJDEW.s 			page 22


 964              		.file 6 "src/../h/../h/list.hpp"
 965              		.file 7 "src/../h/../h/kSemaphore.hpp"
 966              		.file 8 "src/../h/syscall_c.h"
 5618              		.align	3
 5621              	DW.ref.__gxx_personality_v0:
 5622 0000 00000000 		.dword	__gxx_personality_v0
 5622      00000000 
 5623              		.ident	"GCC: (Ubuntu 9.4.0-1ubuntu1~20.04) 9.4.0"
 5624              		.section	.note.GNU-stack,"",@progbits
GAS LISTING /tmp/ccbnJDEW.s 			page 23

