GAS LISTING /tmp/ccpvXXpg.s 			page 1


   1              		.file	"TCB.cpp"
   2              		.option pic
   3              		.option norelax
   4              		.text
   5              	.Ltext0:
   6              		.align	2
   7              		.globl	_ZN3TCB11sleepThreadEm
   9              	_ZN3TCB11sleepThreadEm:
  10              	.LFB64:
  11              		.file 1 "src/TCB.cpp"
   1:src/TCB.cpp   **** //
   2:src/TCB.cpp   **** // Created by os on 8/6/22.
   3:src/TCB.cpp   **** //
   4:src/TCB.cpp   **** 
   5:src/TCB.cpp   **** #include "../h/TCB.hpp"
   6:src/TCB.cpp   **** #include "../h/riscv.hpp"
   7:src/TCB.cpp   **** #include "../h/printing.hpp"
   8:src/TCB.cpp   **** #include "../h/kConsole.hpp"
   9:src/TCB.cpp   **** #include "../h/list.hpp"
  10:src/TCB.cpp   **** 
  11:src/TCB.cpp   **** TCB* TCB::running = nullptr;
  12:src/TCB.cpp   **** 
  13:src/TCB.cpp   **** TCB* TCB::kernelThread = nullptr;
  14:src/TCB.cpp   **** 
  15:src/TCB.cpp   **** uint64 TCB::timeSliceCounter = 0;
  16:src/TCB.cpp   **** 
  17:src/TCB.cpp   **** TCB::SleepNode* TCB::sleepHead = nullptr;
  18:src/TCB.cpp   **** 
  19:src/TCB.cpp   **** uint64 TCB::numActiveThreads = 0;
  20:src/TCB.cpp   **** 
  21:src/TCB.cpp   **** void TCB::sleepThread(time_t waitTime){
  12              		.loc 1 21 39
  13              		.cfi_startproc
  14              	.LVL0:
  22:src/TCB.cpp   **** 
  23:src/TCB.cpp   ****     if(waitTime == 0) return;
  15              		.loc 1 23 5
  16 0000 63140500 		bnez	a0,.L12
  17 0004 67800000 		ret
  18              	.L12:
  21:src/TCB.cpp   **** 
  19              		.loc 1 21 39 is_stmt 0
  20 0008 130101FE 		addi	sp,sp,-32
  21              		.cfi_def_cfa_offset 32
  22 000c 233C1100 		sd	ra,24(sp)
  23 0010 23388100 		sd	s0,16(sp)
  24 0014 23349100 		sd	s1,8(sp)
  25              		.cfi_offset 1, -8
  26              		.cfi_offset 8, -16
  27              		.cfi_offset 9, -24
  28 0018 13040102 		addi	s0,sp,32
  29              		.cfi_def_cfa 8, 0
  30 001c 93040500 		mv	s1,a0
  24:src/TCB.cpp   **** 
  25:src/TCB.cpp   ****     SleepNode* temp = (SleepNode*) MemoryAllocator::kmalloc (MemoryAllocator::allocateBytes(sizeof(
  31              		.loc 1 25 5 is_stmt 1
  32              	.LVL1:
GAS LISTING /tmp/ccpvXXpg.s 			page 2


  33              		.file 2 "src/../h/../h/../h/MemoryAllocator.hpp"
   1:src/../h/../h/../h/MemoryAllocator.hpp **** //
   2:src/../h/../h/../h/MemoryAllocator.hpp **** // Created by os on 8/2/22.
   3:src/../h/../h/../h/MemoryAllocator.hpp **** //
   4:src/../h/../h/../h/MemoryAllocator.hpp **** 
   5:src/../h/../h/../h/MemoryAllocator.hpp **** #ifndef PROJECT_BASE_MEMORYALLOCATOR_HPP
   6:src/../h/../h/../h/MemoryAllocator.hpp **** #define PROJECT_BASE_MEMORYALLOCATOR_HPP
   7:src/../h/../h/../h/MemoryAllocator.hpp **** #include "../lib/hw.h"
   8:src/../h/../h/../h/MemoryAllocator.hpp **** 
   9:src/../h/../h/../h/MemoryAllocator.hpp **** struct BlockHeader{
  10:src/../h/../h/../h/MemoryAllocator.hpp ****     BlockHeader* prev, *next;
  11:src/../h/../h/../h/MemoryAllocator.hpp ****     size_t size;
  12:src/../h/../h/../h/MemoryAllocator.hpp **** };
  13:src/../h/../h/../h/MemoryAllocator.hpp **** 
  14:src/../h/../h/../h/MemoryAllocator.hpp **** //sluzi da bih znala koliko mem da oslobodim sa free
  15:src/../h/../h/../h/MemoryAllocator.hpp **** struct HiddenHeader{
  16:src/../h/../h/../h/MemoryAllocator.hpp ****     size_t size;
  17:src/../h/../h/../h/MemoryAllocator.hpp **** };
  18:src/../h/../h/../h/MemoryAllocator.hpp **** 
  19:src/../h/../h/../h/MemoryAllocator.hpp **** class MemoryAllocator {
  20:src/../h/../h/../h/MemoryAllocator.hpp **** 
  21:src/../h/../h/../h/MemoryAllocator.hpp **** public:
  22:src/../h/../h/../h/MemoryAllocator.hpp **** 
  23:src/../h/../h/../h/MemoryAllocator.hpp ****     static void* kmalloc(size_t);
  24:src/../h/../h/../h/MemoryAllocator.hpp **** 
  25:src/../h/../h/../h/MemoryAllocator.hpp ****     static int kfree (void* addr);
  26:src/../h/../h/../h/MemoryAllocator.hpp **** 
  27:src/../h/../h/../h/MemoryAllocator.hpp ****    static BlockHeader* freeMemHead;
  28:src/../h/../h/../h/MemoryAllocator.hpp **** 
  29:src/../h/../h/../h/MemoryAllocator.hpp ****    static void* hStart;
  30:src/../h/../h/../h/MemoryAllocator.hpp **** 
  31:src/../h/../h/../h/MemoryAllocator.hpp ****    static void* hEnd;
  32:src/../h/../h/../h/MemoryAllocator.hpp **** 
  33:src/../h/../h/../h/MemoryAllocator.hpp ****    static uint64 allocateBytes(size_t size){ return (size - 1)/MEM_BLOCK_SIZE + 1; };
  34              		.loc 2 33 46
  35              		.loc 1 25 61 is_stmt 0
  36 0020 13051000 		li	a0,1
  37              	.LVL2:
  38 0024 97000000 		call	_ZN15MemoryAllocator7kmallocEm@plt
  38      E7800000 
  39              	.LVL3:
  40 002c 93060500 		mv	a3,a0
  41              	.LVL4:
  26:src/TCB.cpp   ****     temp->thr = TCB::running;
  42              		.loc 1 26 5 is_stmt 1
  43              		.loc 1 26 15 is_stmt 0
  44 0030 97070000 		lla	a5,.LANCHOR0
  44      93870700 
  45 0038 03B70700 		ld	a4,0(a5)
  46 003c 2330E500 		sd	a4,0(a0)
  27:src/TCB.cpp   ****     temp->relSleepTime = waitTime;
  47              		.loc 1 27 5 is_stmt 1
  48              		.loc 1 27 24 is_stmt 0
  49 0040 23349500 		sd	s1,8(a0)
  28:src/TCB.cpp   ****     temp->next = nullptr;
  50              		.loc 1 28 5 is_stmt 1
  51              		.loc 1 28 16 is_stmt 0
GAS LISTING /tmp/ccpvXXpg.s 			page 3


  52 0044 23380500 		sd	zero,16(a0)
  29:src/TCB.cpp   **** 
  30:src/TCB.cpp   ****     TCB::running->setAsleep(true);
  53              		.loc 1 30 5 is_stmt 1
  54              	.LVL5:
  55              	.LBB27:
  56              	.LBB28:
  57              		.file 3 "src/../h/TCB.hpp"
   1:src/../h/TCB.hpp **** //
   2:src/../h/TCB.hpp **** // Created by os on 8/6/22.
   3:src/../h/TCB.hpp **** //
   4:src/../h/TCB.hpp **** 
   5:src/../h/TCB.hpp **** #ifndef PROJECT_BASE_TCB_HPP
   6:src/../h/TCB.hpp **** #define PROJECT_BASE_TCB_HPP
   7:src/../h/TCB.hpp **** 
   8:src/../h/TCB.hpp **** 
   9:src/../h/TCB.hpp **** #include "../lib/hw.h"
  10:src/../h/TCB.hpp **** #include "../h/Scheduler.hpp"
  11:src/../h/TCB.hpp **** #include "../h/MemoryAllocator.hpp"
  12:src/../h/TCB.hpp **** #include "../h/syscall_c.h"
  13:src/../h/TCB.hpp **** 
  14:src/../h/TCB.hpp **** 
  15:src/../h/TCB.hpp **** 
  16:src/../h/TCB.hpp **** 
  17:src/../h/TCB.hpp **** class TCB {
  18:src/../h/TCB.hpp **** 
  19:src/../h/TCB.hpp **** public:
  20:src/../h/TCB.hpp **** 
  21:src/../h/TCB.hpp ****     //~TCB(){ MemoryAllocator::kfree(stack);}; // VRATI SE NA OVO
  22:src/../h/TCB.hpp **** 
  23:src/../h/TCB.hpp ****     bool isFinished() const { return finished; }
  24:src/../h/TCB.hpp **** 
  25:src/../h/TCB.hpp ****     bool isBlocked() const { return blocked; }
  26:src/../h/TCB.hpp **** 
  27:src/../h/TCB.hpp ****     bool isAsleep() const { return asleep; }
  28:src/../h/TCB.hpp **** 
  29:src/../h/TCB.hpp ****     bool isKernelThread() const { return kernelThreadFlag; }
  30:src/../h/TCB.hpp **** 
  31:src/../h/TCB.hpp ****     bool isWaitingForInput() const { return waitingForInput; }
  32:src/../h/TCB.hpp **** 
  33:src/../h/TCB.hpp ****     void setFinished(bool value) { finished = value; }
  34:src/../h/TCB.hpp **** 
  35:src/../h/TCB.hpp ****     void setBlocked(bool value) { blocked = value; }
  36:src/../h/TCB.hpp **** 
  37:src/../h/TCB.hpp ****     void setAsleep(bool value) { asleep = value; }
  58              		.loc 3 37 34
  59              		.loc 3 37 41 is_stmt 0
  60 0048 13061000 		li	a2,1
  61 004c 2309C702 		sb	a2,50(a4)
  62              	.LVL6:
  63              	.LBE28:
  64              	.LBE27:
  31:src/TCB.cpp   **** 
  32:src/TCB.cpp   ****     if (TCB::sleepHead == nullptr)
  65              		.loc 1 32 5 is_stmt 1
  66              		.loc 1 32 24 is_stmt 0
  67 0050 03B58700 		ld	a0,8(a5)
GAS LISTING /tmp/ccpvXXpg.s 			page 4


  68              	.LVL7:
  69              		.loc 1 32 5
  70 0054 63080502 		beqz	a0,.L13
  33:src/TCB.cpp   ****     {
  34:src/TCB.cpp   ****         TCB::sleepHead = temp;
  35:src/TCB.cpp   ****         return;
  36:src/TCB.cpp   ****     }
  37:src/TCB.cpp   **** 
  38:src/TCB.cpp   **** 
  39:src/TCB.cpp   ****     SleepNode* curr = TCB::sleepHead, *prev = nullptr;
  71              		.loc 1 39 16
  72 0058 93070500 		mv	a5,a0
  73              		.loc 1 39 40
  74 005c 93050000 		li	a1,0
  75              	.L3:
  76              	.LVL8:
  40:src/TCB.cpp   **** 
  41:src/TCB.cpp   ****     while(curr != nullptr && temp->relSleepTime > curr->relSleepTime){
  77              		.loc 1 41 5 is_stmt 1
  78              		.loc 1 41 27
  79 0060 63880702 		beqz	a5,.L4
  80              		.loc 1 41 36 is_stmt 0 discriminator 1
  81 0064 03B78600 		ld	a4,8(a3)
  82              		.loc 1 41 57 discriminator 1
  83 0068 03B68700 		ld	a2,8(a5)
  84              		.loc 1 41 27 discriminator 1
  85 006c 6372E602 		bleu	a4,a2,.L4
  42:src/TCB.cpp   ****         prev = curr;
  86              		.loc 1 42 9 is_stmt 1
  87              	.LVL9:
  43:src/TCB.cpp   ****         temp->relSleepTime -= curr->relSleepTime;
  88              		.loc 1 43 9
  89              		.loc 1 43 28 is_stmt 0
  90 0070 3307C740 		sub	a4,a4,a2
  91 0074 23B4E600 		sd	a4,8(a3)
  44:src/TCB.cpp   ****         curr = curr->next;
  92              		.loc 1 44 9 is_stmt 1
  93              	.LVL10:
  42:src/TCB.cpp   ****         prev = curr;
  94              		.loc 1 42 14 is_stmt 0
  95 0078 93850700 		mv	a1,a5
  96              		.loc 1 44 14
  97 007c 83B70701 		ld	a5,16(a5)
  98              	.LVL11:
  41:src/TCB.cpp   ****         prev = curr;
  99              		.loc 1 41 5
 100 0080 6FF01FFE 		j	.L3
 101              	.LVL12:
 102              	.L13:
  34:src/TCB.cpp   ****         return;
 103              		.loc 1 34 9 is_stmt 1
  34:src/TCB.cpp   ****         return;
 104              		.loc 1 34 24 is_stmt 0
 105 0084 97070000 		sd	a3,.LANCHOR0+8,a5
 105      23B0D700 
  35:src/TCB.cpp   ****     }
 106              		.loc 1 35 9 is_stmt 1
GAS LISTING /tmp/ccpvXXpg.s 			page 5


 107 008c 6F004002 		j	.L1
 108              	.LVL13:
 109              	.L4:
  45:src/TCB.cpp   ****     }
  46:src/TCB.cpp   **** 
  47:src/TCB.cpp   ****     if (curr == nullptr){
 110              		.loc 1 47 5
 111 0090 638A0702 		beqz	a5,.L14
  48:src/TCB.cpp   ****         prev->next = temp;
  49:src/TCB.cpp   ****         return;
  50:src/TCB.cpp   ****     }
  51:src/TCB.cpp   ****     if(prev == nullptr){
 112              		.loc 1 51 5
 113 0094 638C0502 		beqz	a1,.L15
  52:src/TCB.cpp   **** 
  53:src/TCB.cpp   ****         TCB::sleepHead->relSleepTime -= temp->relSleepTime;
  54:src/TCB.cpp   ****         temp->next = TCB::sleepHead;
  55:src/TCB.cpp   ****         TCB::sleepHead = temp;
  56:src/TCB.cpp   ****         return;
  57:src/TCB.cpp   ****     }
  58:src/TCB.cpp   **** 
  59:src/TCB.cpp   ****     prev->next = temp;
 114              		.loc 1 59 5
 115              		.loc 1 59 16 is_stmt 0
 116 0098 23B8D500 		sd	a3,16(a1)
  60:src/TCB.cpp   ****     temp->next = curr;
 117              		.loc 1 60 5 is_stmt 1
 118              		.loc 1 60 16 is_stmt 0
 119 009c 23B8F600 		sd	a5,16(a3)
  61:src/TCB.cpp   ****     curr->relSleepTime -= temp->relSleepTime;
 120              		.loc 1 61 5 is_stmt 1
 121              		.loc 1 61 33 is_stmt 0
 122 00a0 83B68600 		ld	a3,8(a3)
 123              	.LVL14:
 124              		.loc 1 61 24
 125 00a4 03B78700 		ld	a4,8(a5)
 126 00a8 3307D740 		sub	a4,a4,a3
 127 00ac 23B4E700 		sd	a4,8(a5)
 128              	.LVL15:
 129              	.L1:
  62:src/TCB.cpp   **** 
  63:src/TCB.cpp   **** 
  64:src/TCB.cpp   **** }; //uspavljivanje niti odnosno dodavanje u red uspavanih
 130              		.loc 1 64 1
 131 00b0 83308101 		ld	ra,24(sp)
 132              		.cfi_remember_state
 133              		.cfi_restore 1
 134 00b4 03340101 		ld	s0,16(sp)
 135              		.cfi_restore 8
 136              		.cfi_def_cfa 2, 32
 137 00b8 83348100 		ld	s1,8(sp)
 138              		.cfi_restore 9
 139              	.LVL16:
 140 00bc 13010102 		addi	sp,sp,32
 141              		.cfi_def_cfa_offset 0
 142 00c0 67800000 		jr	ra
 143              	.LVL17:
GAS LISTING /tmp/ccpvXXpg.s 			page 6


 144              	.L14:
 145              		.cfi_restore_state
  48:src/TCB.cpp   ****         return;
 146              		.loc 1 48 9 is_stmt 1
  48:src/TCB.cpp   ****         return;
 147              		.loc 1 48 20 is_stmt 0
 148 00c4 23B8D500 		sd	a3,16(a1)
  49:src/TCB.cpp   ****     }
 149              		.loc 1 49 9 is_stmt 1
 150 00c8 6FF09FFE 		j	.L1
 151              	.L15:
  53:src/TCB.cpp   ****         temp->next = TCB::sleepHead;
 152              		.loc 1 53 9
  53:src/TCB.cpp   ****         temp->next = TCB::sleepHead;
 153              		.loc 1 53 47 is_stmt 0
 154 00cc 03B78600 		ld	a4,8(a3)
  53:src/TCB.cpp   ****         temp->next = TCB::sleepHead;
 155              		.loc 1 53 38
 156 00d0 83378500 		ld	a5,8(a0)
 157              	.LVL18:
 158 00d4 B387E740 		sub	a5,a5,a4
 159 00d8 2334F500 		sd	a5,8(a0)
  54:src/TCB.cpp   ****         TCB::sleepHead = temp;
 160              		.loc 1 54 9 is_stmt 1
  54:src/TCB.cpp   ****         TCB::sleepHead = temp;
 161              		.loc 1 54 20 is_stmt 0
 162 00dc 23B8A600 		sd	a0,16(a3)
  55:src/TCB.cpp   ****         return;
 163              		.loc 1 55 9 is_stmt 1
  55:src/TCB.cpp   ****         return;
 164              		.loc 1 55 24 is_stmt 0
 165 00e0 97070000 		sd	a3,.LANCHOR0+8,a5
 165      23B0D700 
  56:src/TCB.cpp   ****     }
 166              		.loc 1 56 9 is_stmt 1
 167 00e8 6FF09FFC 		j	.L1
 168              		.cfi_endproc
 169              	.LFE64:
 171              		.align	2
 172              		.globl	_ZN3TCB10wakeThreadEv
 174              	_ZN3TCB10wakeThreadEv:
 175              	.LFB65:
  65:src/TCB.cpp   **** 
  66:src/TCB.cpp   **** void TCB::wakeThread(){
 176              		.loc 1 66 23
 177              		.cfi_startproc
  67:src/TCB.cpp   **** 
  68:src/TCB.cpp   **** 
  69:src/TCB.cpp   **** 
  70:src/TCB.cpp   ****     //if(TCB::sleepHead > 0) TCB::sleepHead->relSleepTime--;
  71:src/TCB.cpp   ****     TCB::sleepHead->relSleepTime--;
 178              		.loc 1 71 5
 179              		.loc 1 71 21 is_stmt 0
 180 00ec 17070000 		ld	a4,.LANCHOR0+8
 180      03370700 
 181 00f4 83378700 		ld	a5,8(a4)
 182              		.loc 1 71 33
GAS LISTING /tmp/ccpvXXpg.s 			page 7


 183 00f8 9387F7FF 		addi	a5,a5,-1
 184 00fc 2334F700 		sd	a5,8(a4)
  72:src/TCB.cpp   **** 
  73:src/TCB.cpp   ****     while(TCB::sleepHead != nullptr && TCB::sleepHead->relSleepTime == 0){
 185              		.loc 1 73 5 is_stmt 1
 186              		.loc 1 73 37
 187              		.loc 1 73 26 is_stmt 0
 188 0100 97070000 		ld	a5,.LANCHOR0+8
 188      83B70700 
 189              		.loc 1 73 37
 190 0108 63820706 		beqz	a5,.L21
 191              		.loc 1 73 56
 192 010c 03B78700 		ld	a4,8(a5)
 193              		.loc 1 73 37
 194 0110 631E0704 		bnez	a4,.L21
  66:src/TCB.cpp   **** 
 195              		.loc 1 66 23
 196 0114 130101FF 		addi	sp,sp,-16
 197              		.cfi_def_cfa_offset 16
 198 0118 23341100 		sd	ra,8(sp)
 199 011c 23308100 		sd	s0,0(sp)
 200              		.cfi_offset 1, -8
 201              		.cfi_offset 8, -16
 202 0120 13040101 		addi	s0,sp,16
 203              		.cfi_def_cfa 8, 0
 204 0124 6F00C000 		j	.L23
 205              	.LVL19:
 206              	.L25:
 207              		.loc 1 73 56 discriminator 1
 208 0128 03B78700 		ld	a4,8(a5)
 209              		.loc 1 73 37 discriminator 1
 210 012c 63180702 		bnez	a4,.L16
 211              	.L23:
 212              	.LBB29:
  74:src/TCB.cpp   **** 
  75:src/TCB.cpp   ****         SleepNode* temp = TCB::sleepHead;
 213              		.loc 1 75 9 is_stmt 1
 214              	.LVL20:
  76:src/TCB.cpp   ****         TCB::sleepHead = TCB::sleepHead->next;
 215              		.loc 1 76 9
 216              		.loc 1 76 42 is_stmt 0
 217 0130 03B70701 		ld	a4,16(a5)
 218              		.loc 1 76 24
 219 0134 97060000 		sd	a4,.LANCHOR0+8,a3
 219      23B0E600 
  77:src/TCB.cpp   **** 
  78:src/TCB.cpp   ****         temp->thr->setAsleep(false);//budimo je
 220              		.loc 1 78 9 is_stmt 1
 221              		.loc 1 78 15 is_stmt 0
 222 013c 03B70700 		ld	a4,0(a5)
 223              	.LVL21:
 224              	.LBB30:
 225              	.LBB31:
 226              		.loc 3 37 34 is_stmt 1
 227              		.loc 3 37 41 is_stmt 0
 228 0140 23090702 		sb	zero,50(a4)
 229              	.LVL22:
GAS LISTING /tmp/ccpvXXpg.s 			page 8


 230              	.LBE31:
 231              	.LBE30:
  79:src/TCB.cpp   ****         Scheduler::put(temp->thr);
 232              		.loc 1 79 9 is_stmt 1
 233              		.loc 1 79 23 is_stmt 0
 234 0144 03B50700 		ld	a0,0(a5)
 235 0148 97000000 		call	_ZN9Scheduler3putEP3TCB@plt
 235      E7800000 
 236              	.LVL23:
 237              	.LBE29:
  73:src/TCB.cpp   **** 
 238              		.loc 1 73 5 is_stmt 1
  73:src/TCB.cpp   **** 
 239              		.loc 1 73 37
  73:src/TCB.cpp   **** 
 240              		.loc 1 73 26 is_stmt 0
 241 0150 97070000 		ld	a5,.LANCHOR0+8
 241      83B70700 
  73:src/TCB.cpp   **** 
 242              		.loc 1 73 37
 243 0158 E39807FC 		bnez	a5,.L25
 244              	.L16:
  80:src/TCB.cpp   ****     }
  81:src/TCB.cpp   **** 
  82:src/TCB.cpp   **** 
  83:src/TCB.cpp   **** 
  84:src/TCB.cpp   **** }; //probuditi nit; staviti je u Scheduler
 245              		.loc 1 84 1
 246 015c 83308100 		ld	ra,8(sp)
 247              		.cfi_restore 1
 248 0160 03340100 		ld	s0,0(sp)
 249              		.cfi_restore 8
 250              		.cfi_def_cfa 2, 16
 251 0164 13010101 		addi	sp,sp,16
 252              		.cfi_def_cfa_offset 0
 253 0168 67800000 		jr	ra
 254              	.L21:
 255 016c 67800000 		ret
 256              		.cfi_endproc
 257              	.LFE65:
 259              		.align	2
 260              		.globl	_ZN3TCB5yieldEv
 262              	_ZN3TCB5yieldEv:
 263              	.LFB67:
  85:src/TCB.cpp   **** 
  86:src/TCB.cpp   **** 
  87:src/TCB.cpp   **** TCB* TCB::createThread(Body body)
  88:src/TCB.cpp   **** {
  89:src/TCB.cpp   ****     return new TCB(body, DEFAULT_TIME_SLICE);
  90:src/TCB.cpp   **** }
  91:src/TCB.cpp   **** 
  92:src/TCB.cpp   **** 
  93:src/TCB.cpp   **** void TCB::yield(){
 264              		.loc 1 93 18 is_stmt 1
 265              		.cfi_startproc
 266 0170 130101FF 		addi	sp,sp,-16
 267              		.cfi_def_cfa_offset 16
GAS LISTING /tmp/ccpvXXpg.s 			page 9


 268 0174 23348100 		sd	s0,8(sp)
 269              		.cfi_offset 8, -8
 270 0178 13040101 		addi	s0,sp,16
 271              		.cfi_def_cfa 8, 0
  94:src/TCB.cpp   **** 
  95:src/TCB.cpp   ****     register uint64 code asm("a0") = 0x13;
 272              		.loc 1 95 5
 273              		.loc 1 95 21 is_stmt 0
 274 017c 13053001 		li	a0,19
  96:src/TCB.cpp   **** 
  97:src/TCB.cpp   ****     //mislim da je dovoljan samo sistemski poziv ; nece se prepoznati u switchu ali ce se svakako i
  98:src/TCB.cpp   ****     asm volatile ("ecall" :: "r"(code): "memory");
 275              		.loc 1 98 5 is_stmt 1
 276              		.loc 1 98 50 is_stmt 0
 277              	#APP
 278              	# 98 "src/TCB.cpp" 1
  99              	
 100:src/TCB.cpp   **** 
 101:src/TCB.cpp   **** 
 102:src/TCB.cpp   **** }
 279              		ecall
 280              	# 0 "" 2
 281              		.loc 1 102 1
 282              	#NO_APP
 283 0184 03348100 		ld	s0,8(sp)
 284              		.cfi_restore 8
 285              		.cfi_def_cfa 2, 16
 286 0188 13010101 		addi	sp,sp,16
 287              		.cfi_def_cfa_offset 0
 288 018c 67800000 		jr	ra
 289              		.cfi_endproc
 290              	.LFE67:
 292              		.align	2
 293              		.globl	_ZN3TCB13kernelWrapperEv
 295              	_ZN3TCB13kernelWrapperEv:
 296              	.LFB69:
 103:src/TCB.cpp   **** 
 104:src/TCB.cpp   **** 
 105:src/TCB.cpp   **** 
 106:src/TCB.cpp   **** void TCB::dispatch() {
 107:src/TCB.cpp   **** 
 108:src/TCB.cpp   ****     TCB* old = TCB::running;
 109:src/TCB.cpp   ****     if(old->isFinished()) TCB::numActiveThreads--;
 110:src/TCB.cpp   ****     if(!old->isFinished() && !old->isBlocked() && !old->isAsleep()) Scheduler::put(old);
 111:src/TCB.cpp   **** 
 112:src/TCB.cpp   ****     TCB::running = Scheduler::get();
 113:src/TCB.cpp   **** 
 114:src/TCB.cpp   ****     contextSwitch(old->savedRegs, running->savedRegs);
 115:src/TCB.cpp   **** 
 116:src/TCB.cpp   ****     if (TCB::running->isKernelThread()){
 117:src/TCB.cpp   ****         contextSwitch((uint64*)kernelWrapper);
 118:src/TCB.cpp   ****     }
 119:src/TCB.cpp   ****     if(old->isFinished()){
 120:src/TCB.cpp   ****         MemoryAllocator::kfree(old->userStack);
 121:src/TCB.cpp   ****         MemoryAllocator::kfree(old->savedRegs);
 122:src/TCB.cpp   ****         MemoryAllocator::kfree(old);
 123:src/TCB.cpp   ****     }
GAS LISTING /tmp/ccpvXXpg.s 			page 10


 124:src/TCB.cpp   **** 
 125:src/TCB.cpp   **** }
 126:src/TCB.cpp   **** 
 127:src/TCB.cpp   **** 
 128:src/TCB.cpp   **** 
 129:src/TCB.cpp   **** void TCB::kernelWrapper() {
 297              		.loc 1 129 27 is_stmt 1
 298              		.cfi_startproc
 299 0190 130101FF 		addi	sp,sp,-16
 300              		.cfi_def_cfa_offset 16
 301 0194 23341100 		sd	ra,8(sp)
 302 0198 23308100 		sd	s0,0(sp)
 303              		.cfi_offset 1, -8
 304              		.cfi_offset 8, -16
 305 019c 13040101 		addi	s0,sp,16
 306              		.cfi_def_cfa 8, 0
 130:src/TCB.cpp   **** 
 131:src/TCB.cpp   ****     asm("mv t1, %0"::"r"(TCB::running->userStack));
 307              		.loc 1 131 5
 308              		.loc 1 131 40 is_stmt 0
 309 01a0 97070000 		ld	a5,.LANCHOR0
 309      83B70700 
 310 01a8 83B78700 		ld	a5,8(a5)
 311              		.loc 1 131 51
 312              	#APP
 313              	# 131 "src/TCB.cpp" 1
 132              	    asm("mv sp, t1"); //uvek ista vrednost
 314              		mv t1, a5
 315              	# 0 "" 2
 316              		.loc 1 132 5 is_stmt 1
 317              		.loc 1 132 21 is_stmt 0
 318              	# 132 "src/TCB.cpp" 1
 133              	    //asm("ld sp, 2*8(t1)"); //uvek ista vrednost
 134:src/TCB.cpp   ****     //pozove kernel fju za obradu prekida
 135:src/TCB.cpp   ****     kConsole::sendChars(); //zavrsamo kad je bit spemnosti 0 ili kada u baferu nema vise podataka(s
 319              		mv sp, t1
 320              	# 0 "" 2
 321              		.loc 1 135 5 is_stmt 1
 322              		.loc 1 135 24 is_stmt 0
 323              	#NO_APP
 324 01b4 97000000 		call	_ZN8kConsole9sendCharsEv@plt
 324      E7800000 
 325              	.LVL24:
 136:src/TCB.cpp   ****     TCB::yield(); //vracamo kontekst nekoj drugoj niti; vrlo je bitno da U PR stalno postavljam ra 
 326              		.loc 1 136 5 is_stmt 1
 327              		.loc 1 136 15 is_stmt 0
 328 01bc 97000000 		call	_ZN3TCB5yieldEv
 328      E7800000 
 329              	.LVL25:
 137:src/TCB.cpp   **** 
 138:src/TCB.cpp   **** };
 330              		.loc 1 138 1
 331 01c4 83308100 		ld	ra,8(sp)
 332              		.cfi_restore 1
 333 01c8 03340100 		ld	s0,0(sp)
 334              		.cfi_restore 8
 335              		.cfi_def_cfa 2, 16
GAS LISTING /tmp/ccpvXXpg.s 			page 11


 336 01cc 13010101 		addi	sp,sp,16
 337              		.cfi_def_cfa_offset 0
 338 01d0 67800000 		jr	ra
 339              		.cfi_endproc
 340              	.LFE69:
 342              		.align	2
 343              		.globl	_ZN3TCB13threadWrapperEv
 345              	_ZN3TCB13threadWrapperEv:
 346              	.LFB70:
 139:src/TCB.cpp   **** 
 140:src/TCB.cpp   **** 
 141:src/TCB.cpp   **** void TCB::threadWrapper() {
 347              		.loc 1 141 27 is_stmt 1
 348              		.cfi_startproc
 349 01d4 130101FE 		addi	sp,sp,-32
 350              		.cfi_def_cfa_offset 32
 351 01d8 233C1100 		sd	ra,24(sp)
 352 01dc 23388100 		sd	s0,16(sp)
 353 01e0 23349100 		sd	s1,8(sp)
 354              		.cfi_offset 1, -8
 355              		.cfi_offset 8, -16
 356              		.cfi_offset 9, -24
 357 01e4 13040102 		addi	s0,sp,32
 358              		.cfi_def_cfa 8, 0
 142:src/TCB.cpp   **** 
 143:src/TCB.cpp   ****     asm("mv t1, %0"::"r"(TCB::running->savedRegs));
 359              		.loc 1 143 5
 360              		.loc 1 143 40 is_stmt 0
 361 01e8 97040000 		lla	s1,.LANCHOR0
 361      93840400 
 362 01f0 83B70400 		ld	a5,0(s1)
 363 01f4 83B70701 		ld	a5,16(a5)
 364              		.loc 1 143 51
 365              	#APP
 366              	# 143 "src/TCB.cpp" 1
 144              	    asm("ld a0, 12*8(t1)"); //ovo bi trebalo da je argument ali;
 367              		mv t1, a5
 368              	# 0 "" 2
 369              		.loc 1 144 5 is_stmt 1
 370              		.loc 1 144 27 is_stmt 0
 371              	# 144 "src/TCB.cpp" 1
 145              	    asm("ld sp, 2*8(t1)");
 372              		ld a0, 12*8(t1)
 373              	# 0 "" 2
 374              		.loc 1 145 5 is_stmt 1
 375              		.loc 1 145 26 is_stmt 0
 376              	# 145 "src/TCB.cpp" 1
 146              	
 147:src/TCB.cpp   ****     Riscv::popSppSpie();
 377              		ld sp, 2*8(t1)
 378              	# 0 "" 2
 379              		.loc 1 147 5 is_stmt 1
 380              		.loc 1 147 22 is_stmt 0
 381              	#NO_APP
 382 0204 97000000 		call	_ZN5Riscv10popSppSpieEv@plt
 382      E7800000 
 383              	.LVL26:
GAS LISTING /tmp/ccpvXXpg.s 			page 12


 148:src/TCB.cpp   ****     running->body();
 384              		.loc 1 148 5 is_stmt 1
 385              		.loc 1 148 14 is_stmt 0
 386 020c 83B70400 		ld	a5,0(s1)
 387 0210 83B70700 		ld	a5,0(a5)
 388              		.loc 1 148 18
 389 0214 E7800700 		jalr	a5
 390              	.LVL27:
 149:src/TCB.cpp   ****     running->setFinished(true);
 391              		.loc 1 149 5 is_stmt 1
 392              		.loc 1 149 25 is_stmt 0
 393 0218 83B70400 		ld	a5,0(s1)
 394              	.LVL28:
 395              	.LBB32:
 396              	.LBB33:
  33:src/../h/TCB.hpp **** 
 397              		.loc 3 33 36 is_stmt 1
  33:src/../h/TCB.hpp **** 
 398              		.loc 3 33 45 is_stmt 0
 399 021c 13071000 		li	a4,1
 400 0220 2388E702 		sb	a4,48(a5)
 401              	.LVL29:
 402              	.LBE33:
 403              	.LBE32:
 150:src/TCB.cpp   ****     TCB::yield();
 404              		.loc 1 150 5 is_stmt 1
 405              		.loc 1 150 15 is_stmt 0
 406 0224 97000000 		call	_ZN3TCB5yieldEv
 406      E7800000 
 407              	.LVL30:
 151:src/TCB.cpp   **** }
 408              		.loc 1 151 1
 409 022c 83308101 		ld	ra,24(sp)
 410              		.cfi_restore 1
 411 0230 03340101 		ld	s0,16(sp)
 412              		.cfi_restore 8
 413              		.cfi_def_cfa 2, 32
 414 0234 83348100 		ld	s1,8(sp)
 415              		.cfi_restore 9
 416 0238 13010102 		addi	sp,sp,32
 417              		.cfi_def_cfa_offset 0
 418 023c 67800000 		jr	ra
 419              		.cfi_endproc
 420              	.LFE70:
 422              		.align	2
 423              		.globl	_ZN3TCB8dispatchEv
 425              	_ZN3TCB8dispatchEv:
 426              	.LFB68:
 106:src/TCB.cpp   **** 
 427              		.loc 1 106 22 is_stmt 1
 428              		.cfi_startproc
 429 0240 130101FE 		addi	sp,sp,-32
 430              		.cfi_def_cfa_offset 32
 431 0244 233C1100 		sd	ra,24(sp)
 432 0248 23388100 		sd	s0,16(sp)
 433 024c 23349100 		sd	s1,8(sp)
 434 0250 23302101 		sd	s2,0(sp)
GAS LISTING /tmp/ccpvXXpg.s 			page 13


 435              		.cfi_offset 1, -8
 436              		.cfi_offset 8, -16
 437              		.cfi_offset 9, -24
 438              		.cfi_offset 18, -32
 439 0254 13040102 		addi	s0,sp,32
 440              		.cfi_def_cfa 8, 0
 108:src/TCB.cpp   ****     if(old->isFinished()) TCB::numActiveThreads--;
 441              		.loc 1 108 5
 108:src/TCB.cpp   ****     if(old->isFinished()) TCB::numActiveThreads--;
 442              		.loc 1 108 10 is_stmt 0
 443 0258 97040000 		ld	s1,.LANCHOR0
 443      83B40400 
 444              	.LVL31:
 109:src/TCB.cpp   ****     if(!old->isFinished() && !old->isBlocked() && !old->isAsleep()) Scheduler::put(old);
 445              		.loc 1 109 5 is_stmt 1
 446              	.LBB34:
 447              	.LBB35:
  23:src/../h/TCB.hpp **** 
 448              		.loc 3 23 31
  23:src/../h/TCB.hpp **** 
 449              		.loc 3 23 38 is_stmt 0
 450 0260 83C70403 		lbu	a5,48(s1)
 451              	.LVL32:
 452              	.LBE35:
 453              	.LBE34:
 109:src/TCB.cpp   ****     if(!old->isFinished() && !old->isBlocked() && !old->isAsleep()) Scheduler::put(old);
 454              		.loc 1 109 5
 455 0264 638C0700 		beqz	a5,.L33
 109:src/TCB.cpp   ****     if(!old->isFinished() && !old->isBlocked() && !old->isAsleep()) Scheduler::put(old);
 456              		.loc 1 109 27 is_stmt 1 discriminator 1
 109:src/TCB.cpp   ****     if(!old->isFinished() && !old->isBlocked() && !old->isAsleep()) Scheduler::put(old);
 457              		.loc 1 109 48 is_stmt 0 discriminator 1
 458 0268 97060000 		lla	a3,.LANCHOR0
 458      93860600 
 459 0270 03B70601 		ld	a4,16(a3)
 460 0274 1307F7FF 		addi	a4,a4,-1
 461 0278 23B8E600 		sd	a4,16(a3)
 462              	.L33:
 110:src/TCB.cpp   **** 
 463              		.loc 1 110 5 is_stmt 1
 464              	.LVL33:
  23:src/../h/TCB.hpp **** 
 465              		.loc 3 23 31
 110:src/TCB.cpp   **** 
 466              		.loc 1 110 48 is_stmt 0
 467 027c 639A0700 		bnez	a5,.L34
 468              	.LVL34:
 469              	.LBB36:
 470              	.LBB37:
  25:src/../h/TCB.hpp **** 
 471              		.loc 3 25 30 is_stmt 1
  25:src/../h/TCB.hpp **** 
 472              		.loc 3 25 37 is_stmt 0
 473 0280 83C71403 		lbu	a5,49(s1)
 474              	.LVL35:
 475              	.LBE37:
 476              	.LBE36:
GAS LISTING /tmp/ccpvXXpg.s 			page 14


 110:src/TCB.cpp   **** 
 477              		.loc 1 110 27
 478 0284 63960700 		bnez	a5,.L34
 479              	.LVL36:
 480              	.LBB38:
 481              	.LBB39:
  27:src/../h/TCB.hpp **** 
 482              		.loc 3 27 29 is_stmt 1
  27:src/../h/TCB.hpp **** 
 483              		.loc 3 27 36 is_stmt 0
 484 0288 83C72403 		lbu	a5,50(s1)
 485              	.LVL37:
 486              	.LBE39:
 487              	.LBE38:
 110:src/TCB.cpp   **** 
 488              		.loc 1 110 48
 489 028c 638A0704 		beqz	a5,.L38
 490              	.L34:
 112:src/TCB.cpp   **** 
 491              		.loc 1 112 5 is_stmt 1
 112:src/TCB.cpp   **** 
 492              		.loc 1 112 34 is_stmt 0
 493 0290 97000000 		call	_ZN9Scheduler3getEv@plt
 493      E7800000 
 494              	.LVL38:
 112:src/TCB.cpp   **** 
 495              		.loc 1 112 18
 496 0298 17090000 		lla	s2,.LANCHOR0
 496      13090900 
 497 02a0 2330A900 		sd	a0,0(s2)
 114:src/TCB.cpp   **** 
 498              		.loc 1 114 5 is_stmt 1
 114:src/TCB.cpp   **** 
 499              		.loc 1 114 18 is_stmt 0
 500 02a4 83350501 		ld	a1,16(a0)
 501 02a8 03B50401 		ld	a0,16(s1)
 502 02ac 97000000 		call	_ZN3TCB13contextSwitchEPmS0_@plt
 502      E7800000 
 503              	.LVL39:
 116:src/TCB.cpp   ****         contextSwitch((uint64*)kernelWrapper);
 504              		.loc 1 116 5 is_stmt 1
 116:src/TCB.cpp   ****         contextSwitch((uint64*)kernelWrapper);
 505              		.loc 1 116 37 is_stmt 0
 506 02b4 83370900 		ld	a5,0(s2)
 507              	.LVL40:
 508              	.LBB40:
 509              	.LBB41:
  29:src/../h/TCB.hpp **** 
 510              		.loc 3 29 35 is_stmt 1
  29:src/../h/TCB.hpp **** 
 511              		.loc 3 29 42 is_stmt 0
 512 02b8 83C73703 		lbu	a5,51(a5)
 513              	.LVL41:
 514              	.LBE41:
 515              	.LBE40:
 116:src/TCB.cpp   ****         contextSwitch((uint64*)kernelWrapper);
 516              		.loc 1 116 5
GAS LISTING /tmp/ccpvXXpg.s 			page 15


 517 02bc 639A0702 		bnez	a5,.L39
 518              	.L35:
 119:src/TCB.cpp   ****         MemoryAllocator::kfree(old->userStack);
 519              		.loc 1 119 5 is_stmt 1
 520              	.LVL42:
 521              	.LBB42:
 522              	.LBB43:
  23:src/../h/TCB.hpp **** 
 523              		.loc 3 23 31
  23:src/../h/TCB.hpp **** 
 524              		.loc 3 23 38 is_stmt 0
 525 02c0 83C70403 		lbu	a5,48(s1)
 526              	.LVL43:
 527              	.LBE43:
 528              	.LBE42:
 119:src/TCB.cpp   ****         MemoryAllocator::kfree(old->userStack);
 529              		.loc 1 119 5
 530 02c4 63900704 		bnez	a5,.L40
 531              	.L32:
 125:src/TCB.cpp   **** 
 532              		.loc 1 125 1
 533 02c8 83308101 		ld	ra,24(sp)
 534              		.cfi_remember_state
 535              		.cfi_restore 1
 536 02cc 03340101 		ld	s0,16(sp)
 537              		.cfi_restore 8
 538              		.cfi_def_cfa 2, 32
 539 02d0 83348100 		ld	s1,8(sp)
 540              		.cfi_restore 9
 541              	.LVL44:
 542 02d4 03390100 		ld	s2,0(sp)
 543              		.cfi_restore 18
 544 02d8 13010102 		addi	sp,sp,32
 545              		.cfi_def_cfa_offset 0
 546 02dc 67800000 		jr	ra
 547              	.LVL45:
 548              	.L38:
 549              		.cfi_restore_state
 110:src/TCB.cpp   **** 
 550              		.loc 1 110 69 is_stmt 1
 110:src/TCB.cpp   **** 
 551              		.loc 1 110 83 is_stmt 0
 552 02e0 13850400 		mv	a0,s1
 553 02e4 97000000 		call	_ZN9Scheduler3putEP3TCB@plt
 553      E7800000 
 554              	.LVL46:
 555 02ec 6FF05FFA 		j	.L34
 556              	.L39:
 117:src/TCB.cpp   ****     }
 557              		.loc 1 117 9 is_stmt 1
 117:src/TCB.cpp   ****     }
 558              		.loc 1 117 22 is_stmt 0
 559 02f0 17050000 		lla	a0,_ZN3TCB13kernelWrapperEv
 559      13050500 
 560 02f8 97000000 		call	_ZN3TCB13contextSwitchEPm@plt
 560      E7800000 
 561              	.LVL47:
GAS LISTING /tmp/ccpvXXpg.s 			page 16


 562 0300 6FF01FFC 		j	.L35
 563              	.L40:
 120:src/TCB.cpp   ****         MemoryAllocator::kfree(old->savedRegs);
 564              		.loc 1 120 9 is_stmt 1
 120:src/TCB.cpp   ****         MemoryAllocator::kfree(old->savedRegs);
 565              		.loc 1 120 31 is_stmt 0
 566 0304 03B58400 		ld	a0,8(s1)
 567 0308 97000000 		call	_ZN15MemoryAllocator5kfreeEPv@plt
 567      E7800000 
 568              	.LVL48:
 121:src/TCB.cpp   ****         MemoryAllocator::kfree(old);
 569              		.loc 1 121 9 is_stmt 1
 121:src/TCB.cpp   ****         MemoryAllocator::kfree(old);
 570              		.loc 1 121 31 is_stmt 0
 571 0310 03B50401 		ld	a0,16(s1)
 572 0314 97000000 		call	_ZN15MemoryAllocator5kfreeEPv@plt
 572      E7800000 
 573              	.LVL49:
 122:src/TCB.cpp   ****     }
 574              		.loc 1 122 9 is_stmt 1
 122:src/TCB.cpp   ****     }
 575              		.loc 1 122 31 is_stmt 0
 576 031c 13850400 		mv	a0,s1
 577 0320 97000000 		call	_ZN15MemoryAllocator5kfreeEPv@plt
 577      E7800000 
 578              	.LVL50:
 125:src/TCB.cpp   **** 
 579              		.loc 1 125 1
 580 0328 6FF01FFA 		j	.L32
 581              		.cfi_endproc
 582              	.LFE68:
 584              		.align	2
 585              		.globl	_ZN3TCBnwEm
 587              	_ZN3TCBnwEm:
 588              	.LFB71:
 152:src/TCB.cpp   **** 
 153:src/TCB.cpp   **** 
 154:src/TCB.cpp   **** 
 155:src/TCB.cpp   **** void* TCB::operator new (size_t n){
 589              		.loc 1 155 35 is_stmt 1
 590              		.cfi_startproc
 591              	.LVL51:
 592 032c 130101FF 		addi	sp,sp,-16
 593              		.cfi_def_cfa_offset 16
 594 0330 23341100 		sd	ra,8(sp)
 595 0334 23308100 		sd	s0,0(sp)
 596              		.cfi_offset 1, -8
 597              		.cfi_offset 8, -16
 598 0338 13040101 		addi	s0,sp,16
 599              		.cfi_def_cfa 8, 0
 156:src/TCB.cpp   **** 
 157:src/TCB.cpp   ****     n = MemoryAllocator::allocateBytes(n);
 600              		.loc 1 157 5
 601              	.LVL52:
 602              	.LBB44:
 603              	.LBB45:
 604              		.loc 2 33 46
GAS LISTING /tmp/ccpvXXpg.s 			page 17


 605              		.loc 2 33 59 is_stmt 0
 606 033c 1305F5FF 		addi	a0,a0,-1
 607              	.LVL53:
 608              		.loc 2 33 63
 609 0340 13556500 		srli	a0,a0,6
 610              	.LVL54:
 611              	.LBE45:
 612              	.LBE44:
 158:src/TCB.cpp   **** 
 159:src/TCB.cpp   ****     return MemoryAllocator::kmalloc(n);
 613              		.loc 1 159 5 is_stmt 1
 614              		.loc 1 159 36 is_stmt 0
 615 0344 13051500 		addi	a0,a0,1
 616              	.LVL55:
 617 0348 97000000 		call	_ZN15MemoryAllocator7kmallocEm@plt
 617      E7800000 
 618              	.LVL56:
 160:src/TCB.cpp   **** }
 619              		.loc 1 160 1
 620 0350 83308100 		ld	ra,8(sp)
 621              		.cfi_restore 1
 622 0354 03340100 		ld	s0,0(sp)
 623              		.cfi_restore 8
 624              		.cfi_def_cfa 2, 16
 625 0358 13010101 		addi	sp,sp,16
 626              		.cfi_def_cfa_offset 0
 627 035c 67800000 		jr	ra
 628              		.cfi_endproc
 629              	.LFE71:
 631              		.align	2
 632              		.globl	_ZN3TCBnaEm
 634              	_ZN3TCBnaEm:
 635              	.LFB72:
 161:src/TCB.cpp   **** 
 162:src/TCB.cpp   **** void* TCB::operator new[] (size_t n){
 636              		.loc 1 162 37 is_stmt 1
 637              		.cfi_startproc
 638              	.LVL57:
 639 0360 130101FF 		addi	sp,sp,-16
 640              		.cfi_def_cfa_offset 16
 641 0364 23341100 		sd	ra,8(sp)
 642 0368 23308100 		sd	s0,0(sp)
 643              		.cfi_offset 1, -8
 644              		.cfi_offset 8, -16
 645 036c 13040101 		addi	s0,sp,16
 646              		.cfi_def_cfa 8, 0
 163:src/TCB.cpp   **** 
 164:src/TCB.cpp   ****     n = MemoryAllocator::allocateBytes(n);
 647              		.loc 1 164 5
 648              	.LVL58:
 649              	.LBB46:
 650              	.LBB47:
 651              		.loc 2 33 46
 652              		.loc 2 33 59 is_stmt 0
 653 0370 1305F5FF 		addi	a0,a0,-1
 654              	.LVL59:
 655              		.loc 2 33 63
GAS LISTING /tmp/ccpvXXpg.s 			page 18


 656 0374 13556500 		srli	a0,a0,6
 657              	.LVL60:
 658              	.LBE47:
 659              	.LBE46:
 165:src/TCB.cpp   **** 
 166:src/TCB.cpp   ****     return MemoryAllocator::kmalloc(n);
 660              		.loc 1 166 5 is_stmt 1
 661              		.loc 1 166 36 is_stmt 0
 662 0378 13051500 		addi	a0,a0,1
 663              	.LVL61:
 664 037c 97000000 		call	_ZN15MemoryAllocator7kmallocEm@plt
 664      E7800000 
 665              	.LVL62:
 167:src/TCB.cpp   **** }
 666              		.loc 1 167 1
 667 0384 83308100 		ld	ra,8(sp)
 668              		.cfi_restore 1
 669 0388 03340100 		ld	s0,0(sp)
 670              		.cfi_restore 8
 671              		.cfi_def_cfa 2, 16
 672 038c 13010101 		addi	sp,sp,16
 673              		.cfi_def_cfa_offset 0
 674 0390 67800000 		jr	ra
 675              		.cfi_endproc
 676              	.LFE72:
 678              		.align	2
 679              		.globl	_ZN3TCBdlEPv
 681              	_ZN3TCBdlEPv:
 682              	.LFB73:
 168:src/TCB.cpp   **** 
 169:src/TCB.cpp   **** void TCB::operator delete (void* p) noexcept
 170:src/TCB.cpp   **** {
 683              		.loc 1 170 1 is_stmt 1
 684              		.cfi_startproc
 685              		.cfi_personality 0x9b,DW.ref.__gxx_personality_v0
 686              		.cfi_lsda 0x1b,.LLSDA73
 687              	.LVL63:
 688 0394 130101FF 		addi	sp,sp,-16
 689              		.cfi_def_cfa_offset 16
 690 0398 23341100 		sd	ra,8(sp)
 691 039c 23308100 		sd	s0,0(sp)
 692              		.cfi_offset 1, -8
 693              		.cfi_offset 8, -16
 694 03a0 13040101 		addi	s0,sp,16
 695              		.cfi_def_cfa 8, 0
 171:src/TCB.cpp   ****     MemoryAllocator::kfree(p);
 696              		.loc 1 171 5
 697              		.loc 1 171 27 is_stmt 0
 698 03a4 97000000 		call	_ZN15MemoryAllocator5kfreeEPv@plt
 698      E7800000 
 699              	.LVL64:
 172:src/TCB.cpp   **** }
 700              		.loc 1 172 1
 701 03ac 83308100 		ld	ra,8(sp)
 702              		.cfi_restore 1
 703 03b0 03340100 		ld	s0,0(sp)
 704              		.cfi_restore 8
GAS LISTING /tmp/ccpvXXpg.s 			page 19


 705              		.cfi_def_cfa 2, 16
 706 03b4 13010101 		addi	sp,sp,16
 707              		.cfi_def_cfa_offset 0
 708 03b8 67800000 		jr	ra
 709              		.cfi_endproc
 710              	.LFE73:
 711              		.globl	__gxx_personality_v0
 712              		.section	.gcc_except_table,"a",@progbits
 713              	.LLSDA73:
 714 0000 FF       		.byte	0xff
 715 0001 FF       		.byte	0xff
 716 0002 03       		.byte	0x3
 717 0003 00       		.byte	0
 718              		.text
 720              		.align	2
 721              		.globl	_ZN3TCB12createThreadEPFvvE
 723              	_ZN3TCB12createThreadEPFvvE:
 724              	.LFB66:
  88:src/TCB.cpp   ****     return new TCB(body, DEFAULT_TIME_SLICE);
 725              		.loc 1 88 1 is_stmt 1
 726              		.cfi_startproc
 727              		.cfi_personality 0x9b,DW.ref.__gxx_personality_v0
 728              		.cfi_lsda 0x1b,.LLSDA66
 729              	.LVL65:
 730 03bc 130101FE 		addi	sp,sp,-32
 731              		.cfi_def_cfa_offset 32
 732 03c0 233C1100 		sd	ra,24(sp)
 733 03c4 23388100 		sd	s0,16(sp)
 734 03c8 23349100 		sd	s1,8(sp)
 735 03cc 23302101 		sd	s2,0(sp)
 736              		.cfi_offset 1, -8
 737              		.cfi_offset 8, -16
 738              		.cfi_offset 9, -24
 739              		.cfi_offset 18, -32
 740 03d0 13040102 		addi	s0,sp,32
 741              		.cfi_def_cfa 8, 0
 742 03d4 13090500 		mv	s2,a0
  89:src/TCB.cpp   **** }
 743              		.loc 1 89 5
  89:src/TCB.cpp   **** }
 744              		.loc 1 89 44 is_stmt 0
 745 03d8 13058003 		li	a0,56
 746              	.LVL66:
 747              	.LEHB0:
 748 03dc 97000000 		call	_ZN3TCBnwEm
 748      E7800000 
 749              	.LVL67:
 750              	.LEHE0:
 751 03e4 93040500 		mv	s1,a0
 752              	.LVL68:
 753              	.LBB51:
 754              	.LBB52:
  38:src/../h/TCB.hpp **** 
  39:src/../h/TCB.hpp ****     void setKernelFlag(bool value) { kernelThreadFlag = value; }
  40:src/../h/TCB.hpp **** 
  41:src/../h/TCB.hpp ****     void setWaitingForInput(bool value) { waitingForInput = value; }
  42:src/../h/TCB.hpp **** 
GAS LISTING /tmp/ccpvXXpg.s 			page 20


  43:src/../h/TCB.hpp ****     uint64 getTimeSlice() const { return timeSlice; }
  44:src/../h/TCB.hpp **** 
  45:src/../h/TCB.hpp ****     using Body = void(*)();
  46:src/../h/TCB.hpp **** 
  47:src/../h/TCB.hpp ****     static TCB* createThread(Body body);
  48:src/../h/TCB.hpp **** 
  49:src/../h/TCB.hpp ****     static TCB* running;
  50:src/../h/TCB.hpp **** 
  51:src/../h/TCB.hpp ****     static TCB* kernelThread;
  52:src/../h/TCB.hpp **** 
  53:src/../h/TCB.hpp ****     static uint64 numActiveThreads; //vidi dal radi
  54:src/../h/TCB.hpp **** 
  55:src/../h/TCB.hpp ****     static void sleepThread(time_t); //uspavljivanje niti odnosno dodavanje u red uspavanih
  56:src/../h/TCB.hpp **** 
  57:src/../h/TCB.hpp ****     static void wakeThread(); //probuditi nit; staviti je u Scheduler
  58:src/../h/TCB.hpp **** 
  59:src/../h/TCB.hpp ****     static uint64 timeSliceCounter;
  60:src/../h/TCB.hpp **** 
  61:src/../h/TCB.hpp ****     static void yield();
  62:src/../h/TCB.hpp **** 
  63:src/../h/TCB.hpp ****     static void contextSwitch(uint64* addr);
  64:src/../h/TCB.hpp **** 
  65:src/../h/TCB.hpp ****     static void contextSwitch(uint64* oldSavedRegs , uint64* newSavedRegs);
  66:src/../h/TCB.hpp **** 
  67:src/../h/TCB.hpp ****     static void  kernelContextSwitch();
  68:src/../h/TCB.hpp **** 
  69:src/../h/TCB.hpp ****     struct SleepNode {
  70:src/../h/TCB.hpp **** 
  71:src/../h/TCB.hpp ****         TCB* thr;
  72:src/../h/TCB.hpp ****         time_t relSleepTime;
  73:src/../h/TCB.hpp ****         SleepNode* next;
  74:src/../h/TCB.hpp **** 
  75:src/../h/TCB.hpp **** 
  76:src/../h/TCB.hpp ****         void* operator new (size_t n){
  77:src/../h/TCB.hpp ****             n = MemoryAllocator::allocateBytes(n);
  78:src/../h/TCB.hpp ****             return MemoryAllocator::kmalloc(n);
  79:src/../h/TCB.hpp ****         };
  80:src/../h/TCB.hpp **** 
  81:src/../h/TCB.hpp ****         void operator delete (void* p) noexcept {
  82:src/../h/TCB.hpp ****             MemoryAllocator::kfree(p);
  83:src/../h/TCB.hpp ****         };
  84:src/../h/TCB.hpp **** 
  85:src/../h/TCB.hpp **** 
  86:src/../h/TCB.hpp ****     };
  87:src/../h/TCB.hpp **** 
  88:src/../h/TCB.hpp ****     static SleepNode* sleepHead;
  89:src/../h/TCB.hpp **** 
  90:src/../h/TCB.hpp **** private:
  91:src/../h/TCB.hpp **** 
  92:src/../h/TCB.hpp ****     TCB(Body body, uint64 timeSlice)
  93:src/../h/TCB.hpp ****     {
  94:src/../h/TCB.hpp ****         this->body = body;
 755              		.loc 3 94 9 is_stmt 1
 756              		.loc 3 94 20 is_stmt 0
 757 03e8 23302501 		sd	s2,0(a0)
  95:src/../h/TCB.hpp **** 
  96:src/../h/TCB.hpp ****         static uint64 stackSize = (DEFAULT_STACK_SIZE * 8 - 1)/MEM_BLOCK_SIZE + 1;
GAS LISTING /tmp/ccpvXXpg.s 			page 21


 758              		.loc 3 96 9 is_stmt 1
  97:src/../h/TCB.hpp ****         this->userStack = (body != nullptr ? (uint64*)MemoryAllocator::kmalloc(stackSize) : nullptr
 759              		.loc 3 97 9
 760              		.loc 3 97 44 is_stmt 0
 761 03ec 630C0900 		beqz	s2,.L52
 762              		.loc 3 97 79
 763 03f0 17050000 		ld	a0,_ZZN3TCBC4EPFvvEmE9stackSize
 763      03350500 
 764              	.LEHB1:
 765 03f8 97000000 		call	_ZN15MemoryAllocator7kmallocEm@plt
 765      E7800000 
 766              	.LVL69:
 767 0400 6F008000 		j	.L48
 768              	.L52:
 769              		.loc 3 97 44
 770 0404 13050000 		li	a0,0
 771              	.L48:
 772              		.loc 3 97 25
 773 0408 23B4A400 		sd	a0,8(s1)
  98:src/../h/TCB.hpp **** 
  99:src/../h/TCB.hpp ****         uint64 n = (sizeof(uint64)* 32 - 1)/MEM_BLOCK_SIZE + 1;
 774              		.loc 3 99 9 is_stmt 1
 775              	.LVL70:
 100:src/../h/TCB.hpp ****         this->savedRegs = (uint64*)MemoryAllocator::kmalloc(n);
 776              		.loc 3 100 9
 777              		.loc 3 100 60 is_stmt 0
 778 040c 13054000 		li	a0,4
 779 0410 97000000 		call	_ZN15MemoryAllocator7kmallocEm@plt
 779      E7800000 
 780              	.LVL71:
 781              		.loc 3 100 25
 782 0418 23B8A400 		sd	a0,16(s1)
 101:src/../h/TCB.hpp ****         if (body != nullptr ){
 783              		.loc 3 101 9 is_stmt 1
 784 041c 63040902 		beqz	s2,.L49
 102:src/../h/TCB.hpp ****             this->savedRegs[1] = (uint64)threadWrapper; //upisujem threadWrapper u ra = x1
 785              		.loc 3 102 13
 786              		.loc 3 102 32 is_stmt 0
 787 0420 97070000 		lla	a5,_ZN3TCB13threadWrapperEv
 787      93870700 
 788 0428 2334F500 		sd	a5,8(a0)
 103:src/../h/TCB.hpp ****             this->savedRegs[2] = (uint64) &this->userStack[DEFAULT_STACK_SIZE - 1];
 789              		.loc 3 103 13 is_stmt 1
 790              		.loc 3 103 50 is_stmt 0
 791 042c 83B78400 		ld	a5,8(s1)
 792              		.loc 3 103 43
 793 0430 37870000 		li	a4,32768
 794 0434 130787FF 		addi	a4,a4,-8
 795 0438 B387E700 		add	a5,a5,a4
 796              		.loc 3 103 19
 797 043c 03B70401 		ld	a4,16(s1)
 798              		.loc 3 103 32
 799 0440 2338F700 		sd	a5,16(a4)
 800              	.L49:
 104:src/../h/TCB.hpp **** 
 105:src/../h/TCB.hpp ****         }
 106:src/../h/TCB.hpp **** 
GAS LISTING /tmp/ccpvXXpg.s 			page 22


 107:src/../h/TCB.hpp ****         this->finished = false;
 801              		.loc 3 107 9 is_stmt 1
 802              		.loc 3 107 24 is_stmt 0
 803 0444 23880402 		sb	zero,48(s1)
 108:src/../h/TCB.hpp ****         this->blocked = false;
 804              		.loc 3 108 9 is_stmt 1
 805              		.loc 3 108 23 is_stmt 0
 806 0448 A3880402 		sb	zero,49(s1)
 109:src/../h/TCB.hpp ****         this->asleep = false;
 807              		.loc 3 109 9 is_stmt 1
 808              		.loc 3 109 22 is_stmt 0
 809 044c 23890402 		sb	zero,50(s1)
 110:src/../h/TCB.hpp ****         //this->notUnblockedRegularly = false;
 111:src/../h/TCB.hpp ****         this->kernelThreadFlag = false; // po defualt nit je korisnicka
 810              		.loc 3 111 9 is_stmt 1
 811              		.loc 3 111 32 is_stmt 0
 812 0450 A3890402 		sb	zero,51(s1)
 112:src/../h/TCB.hpp ****         this->waitingForInput = false;
 813              		.loc 3 112 9 is_stmt 1
 814              		.loc 3 112 31 is_stmt 0
 815 0454 238A0402 		sb	zero,52(s1)
 113:src/../h/TCB.hpp **** 
 114:src/../h/TCB.hpp ****         if ( body != nullptr) {
 816              		.loc 3 114 9 is_stmt 1
 817 0458 63080902 		beqz	s2,.L50
 115:src/../h/TCB.hpp ****             Scheduler::put(this);
 818              		.loc 3 115 13
 819              		.loc 3 115 27 is_stmt 0
 820 045c 13850400 		mv	a0,s1
 821 0460 97000000 		call	_ZN9Scheduler3putEP3TCB@plt
 821      E7800000 
 822              	.LVL72:
 823              	.LEHE1:
 824 0468 6F000002 		j	.L50
 825              	.LVL73:
 826              	.L53:
 827 046c 13090500 		mv	s2,a0
 828              	.LVL74:
 829              	.LBE52:
 830              	.LBE51:
  89:src/TCB.cpp   **** }
 831              		.loc 1 89 44
 832 0470 13850400 		mv	a0,s1
 833 0474 97000000 		call	_ZN3TCBdlEPv
 833      E7800000 
 834              	.LVL75:
 835 047c 13050900 		mv	a0,s2
 836              	.LEHB2:
 837 0480 97000000 		call	_Unwind_Resume@plt
 837      E7800000 
 838              	.LVL76:
 839              	.LEHE2:
 840              	.L50:
 841              	.LBB54:
 842              	.LBB53:
 116:src/../h/TCB.hpp ****         }
 117:src/../h/TCB.hpp ****         this->sepc = 0;
GAS LISTING /tmp/ccpvXXpg.s 			page 23


 843              		.loc 3 117 9 is_stmt 1
 844              		.loc 3 117 20 is_stmt 0
 845 0488 23BC0400 		sd	zero,24(s1)
 118:src/../h/TCB.hpp ****         this->sstatus = 0;
 846              		.loc 3 118 9 is_stmt 1
 847              		.loc 3 118 23 is_stmt 0
 848 048c 23B00402 		sd	zero,32(s1)
 119:src/../h/TCB.hpp ****         this->timeSlice = timeSlice;
 849              		.loc 3 119 9 is_stmt 1
 850              		.loc 3 119 25 is_stmt 0
 851 0490 93072000 		li	a5,2
 852 0494 23B4F402 		sd	a5,40(s1)
 120:src/../h/TCB.hpp **** 
 121:src/../h/TCB.hpp ****         TCB::numActiveThreads++;
 853              		.loc 3 121 9 is_stmt 1
 854              		.loc 3 121 30 is_stmt 0
 855 0498 17070000 		lla	a4,.LANCHOR0
 855      13070700 
 856 04a0 83370701 		ld	a5,16(a4)
 857 04a4 93871700 		addi	a5,a5,1
 858 04a8 2338F700 		sd	a5,16(a4)
 859              	.LVL77:
 860              	.LBE53:
 861              	.LBE54:
  90:src/TCB.cpp   **** 
 862              		.loc 1 90 1
 863 04ac 13850400 		mv	a0,s1
 864 04b0 83308101 		ld	ra,24(sp)
 865              		.cfi_restore 1
 866 04b4 03340101 		ld	s0,16(sp)
 867              		.cfi_restore 8
 868              		.cfi_def_cfa 2, 32
 869 04b8 83348100 		ld	s1,8(sp)
 870              		.cfi_restore 9
 871 04bc 03390100 		ld	s2,0(sp)
 872              		.cfi_restore 18
 873              	.LVL78:
 874 04c0 13010102 		addi	sp,sp,32
 875              		.cfi_def_cfa_offset 0
 876 04c4 67800000 		jr	ra
 877              		.cfi_endproc
 878              	.LFE66:
 879              		.section	.gcc_except_table
 880              	.LLSDA66:
 881 0004 FF       		.byte	0xff
 882 0005 FF       		.byte	0xff
 883 0006 03       		.byte	0x3
 884 0007 27       		.byte	0x27
 885 0008 00000000 		.4byte	.LEHB0-.LFB66
 886 000c 00000000 		.4byte	.LEHE0-.LEHB0
 887 0010 00000000 		.4byte	0
 888 0014 00       		.byte	0
 889 0015 00000000 		.4byte	.LEHB1-.LFB66
 890 0019 00000000 		.4byte	.LEHE1-.LEHB1
 891 001d 00000000 		.4byte	.L53-.LFB66
 892 0021 00       		.byte	0
 893 0022 00000000 		.4byte	.LEHB2-.LFB66
GAS LISTING /tmp/ccpvXXpg.s 			page 24


 894 0026 00000000 		.4byte	.LEHE2-.LEHB2
 895 002a 00000000 		.4byte	0
 896 002e 00       		.byte	0
 897              		.text
 899              		.align	2
 900              		.globl	_ZN3TCBdaEPv
 902              	_ZN3TCBdaEPv:
 903              	.LFB74:
 173:src/TCB.cpp   **** 
 174:src/TCB.cpp   **** void TCB::operator delete[] (void* p) noexcept
 175:src/TCB.cpp   **** {
 904              		.loc 1 175 1 is_stmt 1
 905              		.cfi_startproc
 906              		.cfi_personality 0x9b,DW.ref.__gxx_personality_v0
 907              		.cfi_lsda 0x1b,.LLSDA74
 908              	.LVL79:
 909 04c8 130101FF 		addi	sp,sp,-16
 910              		.cfi_def_cfa_offset 16
 911 04cc 23341100 		sd	ra,8(sp)
 912 04d0 23308100 		sd	s0,0(sp)
 913              		.cfi_offset 1, -8
 914              		.cfi_offset 8, -16
 915 04d4 13040101 		addi	s0,sp,16
 916              		.cfi_def_cfa 8, 0
 176:src/TCB.cpp   ****     MemoryAllocator::kfree(p);
 917              		.loc 1 176 5
 918              		.loc 1 176 27 is_stmt 0
 919 04d8 97000000 		call	_ZN15MemoryAllocator5kfreeEPv@plt
 919      E7800000 
 920              	.LVL80:
 177:src/TCB.cpp   **** }
 921              		.loc 1 177 1
 922 04e0 83308100 		ld	ra,8(sp)
 923              		.cfi_restore 1
 924 04e4 03340100 		ld	s0,0(sp)
 925              		.cfi_restore 8
 926              		.cfi_def_cfa 2, 16
 927 04e8 13010101 		addi	sp,sp,16
 928              		.cfi_def_cfa_offset 0
 929 04ec 67800000 		jr	ra
 930              		.cfi_endproc
 931              	.LFE74:
 932              		.section	.gcc_except_table
 933              	.LLSDA74:
 934 002f FF       		.byte	0xff
 935 0030 FF       		.byte	0xff
 936 0031 03       		.byte	0x3
 937 0032 00       		.byte	0
 938              		.text
 940              		.align	2
 941              		.globl	_ZN3TCB19kernelContextSwitchEv
 943              	_ZN3TCB19kernelContextSwitchEv:
 944              	.LFB75:
 178:src/TCB.cpp   **** 
 179:src/TCB.cpp   **** void TCB::kernelContextSwitch(){
 945              		.loc 1 179 32 is_stmt 1
 946              		.cfi_startproc
GAS LISTING /tmp/ccpvXXpg.s 			page 25


 947 04f0 130101FF 		addi	sp,sp,-16
 948              		.cfi_def_cfa_offset 16
 949 04f4 23348100 		sd	s0,8(sp)
 950              		.cfi_offset 8, -8
 951 04f8 13040101 		addi	s0,sp,16
 952              		.cfi_def_cfa 8, 0
 180:src/TCB.cpp   ****     // u PCB trenutne niti upisujemo registre
 181:src/TCB.cpp   ****     asm("mv t1, %0"::"r"(TCB::running->savedRegs));
 953              		.loc 1 181 5
 954              		.loc 1 181 40 is_stmt 0
 955 04fc 97070000 		ld	a5,.LANCHOR0
 955      83B70700 
 956 0504 83B70701 		ld	a5,16(a5)
 957              		.loc 1 181 51
 958              	#APP
 959              	# 181 "src/TCB.cpp" 1
 182              	}
 960              		mv t1, a5
 961              	# 0 "" 2
 962              		.loc 1 182 1
 963              	#NO_APP
 964 050c 03348100 		ld	s0,8(sp)
 965              		.cfi_restore 8
 966              		.cfi_def_cfa 2, 16
 967 0510 13010101 		addi	sp,sp,16
 968              		.cfi_def_cfa_offset 0
 969 0514 67800000 		jr	ra
 970              		.cfi_endproc
 971              	.LFE75:
 973              		.globl	_ZN3TCB16numActiveThreadsE
 974              		.globl	_ZN3TCB9sleepHeadE
 975              		.globl	_ZN3TCB16timeSliceCounterE
 976              		.globl	_ZN3TCB12kernelThreadE
 977              		.globl	_ZN3TCB7runningE
 978              		.weak	_ZZN3TCBC4EPFvvEmE9stackSize
 979              		.section	.data._ZZN3TCBC4EPFvvEmE9stackSize,"awG",@progbits,_ZZN3TCBC4EPFvvEmE9stackSize,comdat
 980              		.align	3
 983              	_ZZN3TCBC4EPFvvEmE9stackSize:
 984 0000 00020000 		.dword	512
 984      00000000 
 985              		.bss
 986              		.align	3
 987              		.set	.LANCHOR0,. + 0
 990              	_ZN3TCB7runningE:
 991 0000 00000000 		.zero	8
 991      00000000 
 994              	_ZN3TCB9sleepHeadE:
 995 0008 00000000 		.zero	8
 995      00000000 
 998              	_ZN3TCB16numActiveThreadsE:
 999 0010 00000000 		.zero	8
 999      00000000 
 1002              	_ZN3TCB16timeSliceCounterE:
 1003 0018 00000000 		.zero	8
 1003      00000000 
 1006              	_ZN3TCB12kernelThreadE:
 1007 0020 00000000 		.zero	8
GAS LISTING /tmp/ccpvXXpg.s 			page 26


 1007      00000000 
 1008              		.text
 1009              	.Letext0:
 1010              		.file 4 "src/../h/../lib/hw.h"
 1011              		.file 5 "src/../h/../h/Scheduler.hpp"
 1012              		.file 6 "src/../h/riscv.hpp"
 1013              		.file 7 "src/../h/kConsole.hpp"
 1014              		.file 8 "src/../h/../h/syscall_c.h"
 4955              		.align	3
 4958              	DW.ref.__gxx_personality_v0:
 4959 0000 00000000 		.dword	__gxx_personality_v0
 4959      00000000 
 4960              		.ident	"GCC: (Ubuntu 9.4.0-1ubuntu1~20.04) 9.4.0"
 4961              		.section	.note.GNU-stack,"",@progbits
GAS LISTING /tmp/ccpvXXpg.s 			page 27

