GAS LISTING /tmp/ccEl49qZ.s 			page 1


   1              		.file	"buffer.cpp"
   2              		.option pic
   3              		.option norelax
   4              		.text
   5              	.Ltext0:
   6              		.align	2
   7              		.globl	_ZN6BufferC2Ei
   9              	_ZN6BufferC2Ei:
  10              	.LFB42:
  11              		.file 1 "test/buffer.cpp"
   1:test/buffer.cpp **** #include "buffer.hpp"
   2:test/buffer.cpp **** 
   3:test/buffer.cpp **** Buffer::Buffer(int _cap) : cap(_cap + 1), head(0), tail(0) {
  12              		.loc 1 3 1
  13              		.cfi_startproc
  14              	.LVL0:
  15 0000 130101FE 		addi	sp,sp,-32
  16              		.cfi_def_cfa_offset 32
  17 0004 233C1100 		sd	ra,24(sp)
  18 0008 23388100 		sd	s0,16(sp)
  19 000c 23349100 		sd	s1,8(sp)
  20 0010 23302101 		sd	s2,0(sp)
  21              		.cfi_offset 1, -8
  22              		.cfi_offset 8, -16
  23              		.cfi_offset 9, -24
  24              		.cfi_offset 18, -32
  25 0014 13040102 		addi	s0,sp,32
  26              		.cfi_def_cfa 8, 0
  27 0018 93040500 		mv	s1,a0
  28 001c 13890500 		mv	s2,a1
  29              	.LBB6:
  30              		.loc 1 3 37 is_stmt 0
  31 0020 9B871500 		addiw	a5,a1,1
  32 0024 1B850700 		sext.w	a0,a5
  33              	.LVL1:
  34              		.loc 1 3 58
  35 0028 23A0F400 		sw	a5,0(s1)
  36 002c 23A80400 		sw	zero,16(s1)
  37 0030 23AA0400 		sw	zero,20(s1)
   4:test/buffer.cpp ****     buffer = (int *)mem_alloc(sizeof(int) * cap);
  38              		.loc 1 4 5 is_stmt 1
  39              		.loc 1 4 30 is_stmt 0
  40 0034 13152500 		slli	a0,a0,2
  41 0038 97000000 		call	_Z9mem_allocm@plt
  41      E7800000 
  42              	.LVL2:
  43              		.loc 1 4 12
  44 0040 23B4A400 		sd	a0,8(s1)
   5:test/buffer.cpp ****     sem_open(&itemAvailable, 0);
  45              		.loc 1 5 5 is_stmt 1
  46              		.loc 1 5 13 is_stmt 0
  47 0044 93050000 		li	a1,0
  48 0048 13850402 		addi	a0,s1,32
  49 004c 97000000 		call	_Z8sem_openPP10kSemaphorej@plt
  49      E7800000 
  50              	.LVL3:
   6:test/buffer.cpp ****     sem_open(&spaceAvailable, _cap);
GAS LISTING /tmp/ccEl49qZ.s 			page 2


  51              		.loc 1 6 5 is_stmt 1
  52              		.loc 1 6 13 is_stmt 0
  53 0054 93050900 		mv	a1,s2
  54 0058 13858401 		addi	a0,s1,24
  55 005c 97000000 		call	_Z8sem_openPP10kSemaphorej@plt
  55      E7800000 
  56              	.LVL4:
   7:test/buffer.cpp ****     sem_open(&mutexHead, 1);
  57              		.loc 1 7 5 is_stmt 1
  58              		.loc 1 7 13 is_stmt 0
  59 0064 93051000 		li	a1,1
  60 0068 13858402 		addi	a0,s1,40
  61 006c 97000000 		call	_Z8sem_openPP10kSemaphorej@plt
  61      E7800000 
  62              	.LVL5:
   8:test/buffer.cpp ****     sem_open(&mutexTail, 1);
  63              		.loc 1 8 5 is_stmt 1
  64              		.loc 1 8 13 is_stmt 0
  65 0074 93051000 		li	a1,1
  66 0078 13850403 		addi	a0,s1,48
  67 007c 97000000 		call	_Z8sem_openPP10kSemaphorej@plt
  67      E7800000 
  68              	.LVL6:
  69              	.LBE6:
   9:test/buffer.cpp **** }
  70              		.loc 1 9 1
  71 0084 83308101 		ld	ra,24(sp)
  72              		.cfi_restore 1
  73 0088 03340101 		ld	s0,16(sp)
  74              		.cfi_restore 8
  75              		.cfi_def_cfa 2, 32
  76 008c 83348100 		ld	s1,8(sp)
  77              		.cfi_restore 9
  78              	.LVL7:
  79 0090 03390100 		ld	s2,0(sp)
  80              		.cfi_restore 18
  81 0094 13010102 		addi	sp,sp,32
  82              		.cfi_def_cfa_offset 0
  83 0098 67800000 		jr	ra
  84              		.cfi_endproc
  85              	.LFE42:
  87              		.globl	_ZN6BufferC1Ei
  88              		.set	_ZN6BufferC1Ei,_ZN6BufferC2Ei
  89              		.align	2
  90              		.globl	_ZN6Buffer3putEi
  92              	_ZN6Buffer3putEi:
  93              	.LFB47:
  10:test/buffer.cpp **** 
  11:test/buffer.cpp **** Buffer::~Buffer() {
  12:test/buffer.cpp ****     putc('\n');
  13:test/buffer.cpp ****     printString("Buffer deleted!\n");
  14:test/buffer.cpp ****     while (getCnt() > 0) {
  15:test/buffer.cpp ****         char ch = buffer[head];
  16:test/buffer.cpp ****         putc(ch);
  17:test/buffer.cpp ****         head = (head + 1) % cap;
  18:test/buffer.cpp ****     }
  19:test/buffer.cpp ****     putc('!');
GAS LISTING /tmp/ccEl49qZ.s 			page 3


  20:test/buffer.cpp ****     putc('\n');
  21:test/buffer.cpp **** 
  22:test/buffer.cpp ****     mem_free(buffer);
  23:test/buffer.cpp ****     sem_close(itemAvailable);
  24:test/buffer.cpp ****     sem_close(spaceAvailable);
  25:test/buffer.cpp ****     sem_close(mutexTail);
  26:test/buffer.cpp ****     sem_close(mutexHead);
  27:test/buffer.cpp **** }
  28:test/buffer.cpp **** 
  29:test/buffer.cpp **** void Buffer::put(int val) {
  94              		.loc 1 29 27 is_stmt 1
  95              		.cfi_startproc
  96              	.LVL8:
  97 009c 130101FE 		addi	sp,sp,-32
  98              		.cfi_def_cfa_offset 32
  99 00a0 233C1100 		sd	ra,24(sp)
 100 00a4 23388100 		sd	s0,16(sp)
 101 00a8 23349100 		sd	s1,8(sp)
 102 00ac 23302101 		sd	s2,0(sp)
 103              		.cfi_offset 1, -8
 104              		.cfi_offset 8, -16
 105              		.cfi_offset 9, -24
 106              		.cfi_offset 18, -32
 107 00b0 13040102 		addi	s0,sp,32
 108              		.cfi_def_cfa 8, 0
 109 00b4 93040500 		mv	s1,a0
 110 00b8 13890500 		mv	s2,a1
  30:test/buffer.cpp ****     sem_wait(spaceAvailable);
 111              		.loc 1 30 5
 112              		.loc 1 30 13 is_stmt 0
 113 00bc 03358501 		ld	a0,24(a0)
 114              	.LVL9:
 115 00c0 97000000 		call	_Z8sem_waitP10kSemaphore@plt
 115      E7800000 
 116              	.LVL10:
  31:test/buffer.cpp **** 
  32:test/buffer.cpp ****     sem_wait(mutexTail);
 117              		.loc 1 32 5 is_stmt 1
 118              		.loc 1 32 13 is_stmt 0
 119 00c8 03B50403 		ld	a0,48(s1)
 120 00cc 97000000 		call	_Z8sem_waitP10kSemaphore@plt
 120      E7800000 
 121              	.LVL11:
  33:test/buffer.cpp ****     buffer[tail] = val;
 122              		.loc 1 33 5 is_stmt 1
 123 00d4 83B78400 		ld	a5,8(s1)
 124              		.loc 1 33 12 is_stmt 0
 125 00d8 03A74401 		lw	a4,20(s1)
 126              		.loc 1 33 16
 127 00dc 13172700 		slli	a4,a4,2
 128 00e0 B387E700 		add	a5,a5,a4
 129              		.loc 1 33 18
 130 00e4 23A02701 		sw	s2,0(a5)
  34:test/buffer.cpp ****     tail = (tail + 1) % cap;
 131              		.loc 1 34 5 is_stmt 1
 132              		.loc 1 34 13 is_stmt 0
 133 00e8 83A74401 		lw	a5,20(s1)
GAS LISTING /tmp/ccEl49qZ.s 			page 4


 134              		.loc 1 34 18
 135 00ec 9B871700 		addiw	a5,a5,1
 136              		.loc 1 34 25
 137 00f0 03A70400 		lw	a4,0(s1)
 138              		.loc 1 34 23
 139 00f4 BBE7E702 		remw	a5,a5,a4
 140              		.loc 1 34 10
 141 00f8 23AAF400 		sw	a5,20(s1)
  35:test/buffer.cpp ****     sem_signal(mutexTail);
 142              		.loc 1 35 5 is_stmt 1
 143              		.loc 1 35 15 is_stmt 0
 144 00fc 03B50403 		ld	a0,48(s1)
 145 0100 97000000 		call	_Z10sem_signalP10kSemaphore@plt
 145      E7800000 
 146              	.LVL12:
  36:test/buffer.cpp **** 
  37:test/buffer.cpp ****     sem_signal(itemAvailable);
 147              		.loc 1 37 5 is_stmt 1
 148              		.loc 1 37 15 is_stmt 0
 149 0108 03B50402 		ld	a0,32(s1)
 150 010c 97000000 		call	_Z10sem_signalP10kSemaphore@plt
 150      E7800000 
 151              	.LVL13:
  38:test/buffer.cpp **** 
  39:test/buffer.cpp **** }
 152              		.loc 1 39 1
 153 0114 83308101 		ld	ra,24(sp)
 154              		.cfi_restore 1
 155 0118 03340101 		ld	s0,16(sp)
 156              		.cfi_restore 8
 157              		.cfi_def_cfa 2, 32
 158 011c 83348100 		ld	s1,8(sp)
 159              		.cfi_restore 9
 160              	.LVL14:
 161 0120 03390100 		ld	s2,0(sp)
 162              		.cfi_restore 18
 163 0124 13010102 		addi	sp,sp,32
 164              		.cfi_def_cfa_offset 0
 165 0128 67800000 		jr	ra
 166              		.cfi_endproc
 167              	.LFE47:
 169              		.align	2
 170              		.globl	_ZN6Buffer3getEv
 172              	_ZN6Buffer3getEv:
 173              	.LFB48:
  40:test/buffer.cpp **** 
  41:test/buffer.cpp **** int Buffer::get() {
 174              		.loc 1 41 19 is_stmt 1
 175              		.cfi_startproc
 176              	.LVL15:
 177 012c 130101FE 		addi	sp,sp,-32
 178              		.cfi_def_cfa_offset 32
 179 0130 233C1100 		sd	ra,24(sp)
 180 0134 23388100 		sd	s0,16(sp)
 181 0138 23349100 		sd	s1,8(sp)
 182 013c 23302101 		sd	s2,0(sp)
 183              		.cfi_offset 1, -8
GAS LISTING /tmp/ccEl49qZ.s 			page 5


 184              		.cfi_offset 8, -16
 185              		.cfi_offset 9, -24
 186              		.cfi_offset 18, -32
 187 0140 13040102 		addi	s0,sp,32
 188              		.cfi_def_cfa 8, 0
 189 0144 93040500 		mv	s1,a0
  42:test/buffer.cpp ****     sem_wait(itemAvailable);
 190              		.loc 1 42 5
 191              		.loc 1 42 13 is_stmt 0
 192 0148 03350502 		ld	a0,32(a0)
 193              	.LVL16:
 194 014c 97000000 		call	_Z8sem_waitP10kSemaphore@plt
 194      E7800000 
 195              	.LVL17:
  43:test/buffer.cpp **** 
  44:test/buffer.cpp ****     sem_wait(mutexHead);
 196              		.loc 1 44 5 is_stmt 1
 197              		.loc 1 44 13 is_stmt 0
 198 0154 03B58402 		ld	a0,40(s1)
 199 0158 97000000 		call	_Z8sem_waitP10kSemaphore@plt
 199      E7800000 
 200              	.LVL18:
  45:test/buffer.cpp **** 
  46:test/buffer.cpp ****     int ret = buffer[head];
 201              		.loc 1 46 5 is_stmt 1
 202              		.loc 1 46 15 is_stmt 0
 203 0160 03B78400 		ld	a4,8(s1)
 204              		.loc 1 46 22
 205 0164 83A70401 		lw	a5,16(s1)
 206              		.loc 1 46 26
 207 0168 93962700 		slli	a3,a5,2
 208 016c 3307D700 		add	a4,a4,a3
 209              		.loc 1 46 9
 210 0170 03290700 		lw	s2,0(a4)
 211              	.LVL19:
  47:test/buffer.cpp ****     head = (head + 1) % cap;
 212              		.loc 1 47 5 is_stmt 1
 213              		.loc 1 47 18 is_stmt 0
 214 0174 9B871700 		addiw	a5,a5,1
 215              		.loc 1 47 25
 216 0178 03A70400 		lw	a4,0(s1)
 217              		.loc 1 47 23
 218 017c BBE7E702 		remw	a5,a5,a4
 219              		.loc 1 47 10
 220 0180 23A8F400 		sw	a5,16(s1)
  48:test/buffer.cpp ****     sem_signal(mutexHead);
 221              		.loc 1 48 5 is_stmt 1
 222              		.loc 1 48 15 is_stmt 0
 223 0184 03B58402 		ld	a0,40(s1)
 224 0188 97000000 		call	_Z10sem_signalP10kSemaphore@plt
 224      E7800000 
 225              	.LVL20:
  49:test/buffer.cpp **** 
  50:test/buffer.cpp ****     sem_signal(spaceAvailable);
 226              		.loc 1 50 5 is_stmt 1
 227              		.loc 1 50 15 is_stmt 0
 228 0190 03B58401 		ld	a0,24(s1)
GAS LISTING /tmp/ccEl49qZ.s 			page 6


 229 0194 97000000 		call	_Z10sem_signalP10kSemaphore@plt
 229      E7800000 
 230              	.LVL21:
  51:test/buffer.cpp **** 
  52:test/buffer.cpp ****     return ret;
 231              		.loc 1 52 5 is_stmt 1
  53:test/buffer.cpp **** }
 232              		.loc 1 53 1 is_stmt 0
 233 019c 13050900 		mv	a0,s2
 234 01a0 83308101 		ld	ra,24(sp)
 235              		.cfi_restore 1
 236 01a4 03340101 		ld	s0,16(sp)
 237              		.cfi_restore 8
 238              		.cfi_def_cfa 2, 32
 239 01a8 83348100 		ld	s1,8(sp)
 240              		.cfi_restore 9
 241              	.LVL22:
 242 01ac 03390100 		ld	s2,0(sp)
 243              		.cfi_restore 18
 244              	.LVL23:
 245 01b0 13010102 		addi	sp,sp,32
 246              		.cfi_def_cfa_offset 0
 247 01b4 67800000 		jr	ra
 248              		.cfi_endproc
 249              	.LFE48:
 251              		.align	2
 252              		.globl	_ZN6Buffer6getCntEv
 254              	_ZN6Buffer6getCntEv:
 255              	.LFB49:
  54:test/buffer.cpp **** 
  55:test/buffer.cpp **** int Buffer::getCnt() {
 256              		.loc 1 55 22 is_stmt 1
 257              		.cfi_startproc
 258              	.LVL24:
 259 01b8 130101FE 		addi	sp,sp,-32
 260              		.cfi_def_cfa_offset 32
 261 01bc 233C1100 		sd	ra,24(sp)
 262 01c0 23388100 		sd	s0,16(sp)
 263 01c4 23349100 		sd	s1,8(sp)
 264 01c8 23302101 		sd	s2,0(sp)
 265              		.cfi_offset 1, -8
 266              		.cfi_offset 8, -16
 267              		.cfi_offset 9, -24
 268              		.cfi_offset 18, -32
 269 01cc 13040102 		addi	s0,sp,32
 270              		.cfi_def_cfa 8, 0
 271 01d0 93040500 		mv	s1,a0
  56:test/buffer.cpp ****     int ret;
 272              		.loc 1 56 5
  57:test/buffer.cpp **** 
  58:test/buffer.cpp ****     sem_wait(mutexHead);
 273              		.loc 1 58 5
 274              		.loc 1 58 13 is_stmt 0
 275 01d4 03358502 		ld	a0,40(a0)
 276              	.LVL25:
 277 01d8 97000000 		call	_Z8sem_waitP10kSemaphore@plt
 277      E7800000 
GAS LISTING /tmp/ccEl49qZ.s 			page 7


 278              	.LVL26:
  59:test/buffer.cpp ****     sem_wait(mutexTail);
 279              		.loc 1 59 5 is_stmt 1
 280              		.loc 1 59 13 is_stmt 0
 281 01e0 03B50403 		ld	a0,48(s1)
 282 01e4 97000000 		call	_Z8sem_waitP10kSemaphore@plt
 282      E7800000 
 283              	.LVL27:
  60:test/buffer.cpp **** 
  61:test/buffer.cpp ****     if (tail >= head) {
 284              		.loc 1 61 5 is_stmt 1
 285              		.loc 1 61 9 is_stmt 0
 286 01ec 83A74401 		lw	a5,20(s1)
 287              		.loc 1 61 17
 288 01f0 03A90401 		lw	s2,16(s1)
 289              		.loc 1 61 5
 290 01f4 63CE2703 		blt	a5,s2,.L8
  62:test/buffer.cpp ****         ret = tail - head;
 291              		.loc 1 62 9 is_stmt 1
 292              		.loc 1 62 13 is_stmt 0
 293 01f8 3B892741 		subw	s2,a5,s2
 294              	.LVL28:
 295              	.L9:
  63:test/buffer.cpp ****     } else {
  64:test/buffer.cpp ****         ret = cap - head + tail;
  65:test/buffer.cpp ****     }
  66:test/buffer.cpp **** 
  67:test/buffer.cpp ****     sem_signal(mutexTail);
 296              		.loc 1 67 5 is_stmt 1
 297              		.loc 1 67 15 is_stmt 0
 298 01fc 03B50403 		ld	a0,48(s1)
 299 0200 97000000 		call	_Z10sem_signalP10kSemaphore@plt
 299      E7800000 
 300              	.LVL29:
  68:test/buffer.cpp ****     sem_signal(mutexHead);
 301              		.loc 1 68 5 is_stmt 1
 302              		.loc 1 68 15 is_stmt 0
 303 0208 03B58402 		ld	a0,40(s1)
 304 020c 97000000 		call	_Z10sem_signalP10kSemaphore@plt
 304      E7800000 
 305              	.LVL30:
  69:test/buffer.cpp **** 
  70:test/buffer.cpp ****     return ret;
 306              		.loc 1 70 5 is_stmt 1
  71:test/buffer.cpp **** }
 307              		.loc 1 71 1 is_stmt 0
 308 0214 13050900 		mv	a0,s2
 309 0218 83308101 		ld	ra,24(sp)
 310              		.cfi_remember_state
 311              		.cfi_restore 1
 312 021c 03340101 		ld	s0,16(sp)
 313              		.cfi_restore 8
 314              		.cfi_def_cfa 2, 32
 315 0220 83348100 		ld	s1,8(sp)
 316              		.cfi_restore 9
 317              	.LVL31:
 318 0224 03390100 		ld	s2,0(sp)
GAS LISTING /tmp/ccEl49qZ.s 			page 8


 319              		.cfi_restore 18
 320              	.LVL32:
 321 0228 13010102 		addi	sp,sp,32
 322              		.cfi_def_cfa_offset 0
 323 022c 67800000 		jr	ra
 324              	.LVL33:
 325              	.L8:
 326              		.cfi_restore_state
  64:test/buffer.cpp ****     }
 327              		.loc 1 64 9 is_stmt 1
  64:test/buffer.cpp ****     }
 328              		.loc 1 64 15 is_stmt 0
 329 0230 03A70400 		lw	a4,0(s1)
  64:test/buffer.cpp ****     }
 330              		.loc 1 64 19
 331 0234 3B092741 		subw	s2,a4,s2
  64:test/buffer.cpp ****     }
 332              		.loc 1 64 13
 333 0238 3B09F900 		addw	s2,s2,a5
 334 023c 6FF01FFC 		j	.L9
 335              		.cfi_endproc
 336              	.LFE49:
 338              		.section	.rodata.str1.8,"aMS",@progbits,1
 339              		.align	3
 340              	.LC0:
 341 0000 42756666 		.string	"Buffer deleted!\n"
 341      65722064 
 341      656C6574 
 341      6564210A 
 341      00
 342              		.text
 343              		.align	2
 344              		.globl	_ZN6BufferD2Ev
 346              	_ZN6BufferD2Ev:
 347              	.LFB45:
  11:test/buffer.cpp ****     putc('\n');
 348              		.loc 1 11 1 is_stmt 1
 349              		.cfi_startproc
 350              		.cfi_personality 0x9b,DW.ref.__gxx_personality_v0
 351              		.cfi_lsda 0x1b,.LLSDA45
 352              	.LVL34:
 353 0240 130101FE 		addi	sp,sp,-32
 354              		.cfi_def_cfa_offset 32
 355 0244 233C1100 		sd	ra,24(sp)
 356 0248 23388100 		sd	s0,16(sp)
 357 024c 23349100 		sd	s1,8(sp)
 358              		.cfi_offset 1, -8
 359              		.cfi_offset 8, -16
 360              		.cfi_offset 9, -24
 361 0250 13040102 		addi	s0,sp,32
 362              		.cfi_def_cfa 8, 0
 363 0254 93040500 		mv	s1,a0
 364              	.LBB7:
  12:test/buffer.cpp ****     printString("Buffer deleted!\n");
 365              		.loc 1 12 5
  12:test/buffer.cpp ****     printString("Buffer deleted!\n");
 366              		.loc 1 12 9 is_stmt 0
GAS LISTING /tmp/ccEl49qZ.s 			page 9


 367 0258 1305A000 		li	a0,10
 368              	.LVL35:
 369 025c 97000000 		call	_Z4putcc@plt
 369      E7800000 
 370              	.LVL36:
  13:test/buffer.cpp ****     while (getCnt() > 0) {
 371              		.loc 1 13 5 is_stmt 1
  13:test/buffer.cpp ****     while (getCnt() > 0) {
 372              		.loc 1 13 16 is_stmt 0
 373 0264 17050000 		lla	a0,.LC0
 373      13050500 
 374 026c 97000000 		call	_Z11printStringPKc@plt
 374      E7800000 
 375              	.LVL37:
 376              	.L13:
  14:test/buffer.cpp ****         char ch = buffer[head];
 377              		.loc 1 14 5 is_stmt 1
  14:test/buffer.cpp ****         char ch = buffer[head];
 378              		.loc 1 14 21
  14:test/buffer.cpp ****         char ch = buffer[head];
 379              		.loc 1 14 18 is_stmt 0
 380 0274 13850400 		mv	a0,s1
 381 0278 97000000 		call	_ZN6Buffer6getCntEv
 381      E7800000 
 382              	.LVL38:
  14:test/buffer.cpp ****         char ch = buffer[head];
 383              		.loc 1 14 21
 384 0280 635CA002 		blez	a0,.L12
 385              	.LBB8:
  15:test/buffer.cpp ****         putc(ch);
 386              		.loc 1 15 9 is_stmt 1
  15:test/buffer.cpp ****         putc(ch);
 387              		.loc 1 15 19 is_stmt 0
 388 0284 83B78400 		ld	a5,8(s1)
  15:test/buffer.cpp ****         putc(ch);
 389              		.loc 1 15 26
 390 0288 03A70401 		lw	a4,16(s1)
  15:test/buffer.cpp ****         putc(ch);
 391              		.loc 1 15 30
 392 028c 13172700 		slli	a4,a4,2
 393 0290 B387E700 		add	a5,a5,a4
 394              	.LVL39:
  16:test/buffer.cpp ****         head = (head + 1) % cap;
 395              		.loc 1 16 9 is_stmt 1
  16:test/buffer.cpp ****         head = (head + 1) % cap;
 396              		.loc 1 16 13 is_stmt 0
 397 0294 03C50700 		lbu	a0,0(a5)
 398 0298 97000000 		call	_Z4putcc@plt
 398      E7800000 
 399              	.LVL40:
  17:test/buffer.cpp ****     }
 400              		.loc 1 17 9 is_stmt 1
  17:test/buffer.cpp ****     }
 401              		.loc 1 17 17 is_stmt 0
 402 02a0 83A70401 		lw	a5,16(s1)
  17:test/buffer.cpp ****     }
 403              		.loc 1 17 22
GAS LISTING /tmp/ccEl49qZ.s 			page 10


 404 02a4 9B871700 		addiw	a5,a5,1
  17:test/buffer.cpp ****     }
 405              		.loc 1 17 29
 406 02a8 03A70400 		lw	a4,0(s1)
  17:test/buffer.cpp ****     }
 407              		.loc 1 17 27
 408 02ac BBE7E702 		remw	a5,a5,a4
  17:test/buffer.cpp ****     }
 409              		.loc 1 17 14
 410 02b0 23A8F400 		sw	a5,16(s1)
 411              	.LBE8:
  14:test/buffer.cpp ****         char ch = buffer[head];
 412              		.loc 1 14 5
 413 02b4 6FF01FFC 		j	.L13
 414              	.L12:
  19:test/buffer.cpp ****     putc('\n');
 415              		.loc 1 19 5 is_stmt 1
  19:test/buffer.cpp ****     putc('\n');
 416              		.loc 1 19 9 is_stmt 0
 417 02b8 13051002 		li	a0,33
 418 02bc 97000000 		call	_Z4putcc@plt
 418      E7800000 
 419              	.LVL41:
  20:test/buffer.cpp **** 
 420              		.loc 1 20 5 is_stmt 1
  20:test/buffer.cpp **** 
 421              		.loc 1 20 9 is_stmt 0
 422 02c4 1305A000 		li	a0,10
 423 02c8 97000000 		call	_Z4putcc@plt
 423      E7800000 
 424              	.LVL42:
  22:test/buffer.cpp ****     sem_close(itemAvailable);
 425              		.loc 1 22 5 is_stmt 1
  22:test/buffer.cpp ****     sem_close(itemAvailable);
 426              		.loc 1 22 13 is_stmt 0
 427 02d0 03B58400 		ld	a0,8(s1)
 428 02d4 97000000 		call	_Z8mem_freePv@plt
 428      E7800000 
 429              	.LVL43:
  23:test/buffer.cpp ****     sem_close(spaceAvailable);
 430              		.loc 1 23 5 is_stmt 1
  23:test/buffer.cpp ****     sem_close(spaceAvailable);
 431              		.loc 1 23 14 is_stmt 0
 432 02dc 03B50402 		ld	a0,32(s1)
 433 02e0 97000000 		call	_Z9sem_closeP10kSemaphore@plt
 433      E7800000 
 434              	.LVL44:
  24:test/buffer.cpp ****     sem_close(mutexTail);
 435              		.loc 1 24 5 is_stmt 1
  24:test/buffer.cpp ****     sem_close(mutexTail);
 436              		.loc 1 24 14 is_stmt 0
 437 02e8 03B58401 		ld	a0,24(s1)
 438 02ec 97000000 		call	_Z9sem_closeP10kSemaphore@plt
 438      E7800000 
 439              	.LVL45:
  25:test/buffer.cpp ****     sem_close(mutexHead);
 440              		.loc 1 25 5 is_stmt 1
GAS LISTING /tmp/ccEl49qZ.s 			page 11


  25:test/buffer.cpp ****     sem_close(mutexHead);
 441              		.loc 1 25 14 is_stmt 0
 442 02f4 03B50403 		ld	a0,48(s1)
 443 02f8 97000000 		call	_Z9sem_closeP10kSemaphore@plt
 443      E7800000 
 444              	.LVL46:
  26:test/buffer.cpp **** }
 445              		.loc 1 26 5 is_stmt 1
  26:test/buffer.cpp **** }
 446              		.loc 1 26 14 is_stmt 0
 447 0300 03B58402 		ld	a0,40(s1)
 448 0304 97000000 		call	_Z9sem_closeP10kSemaphore@plt
 448      E7800000 
 449              	.LVL47:
 450              	.LBE7:
  27:test/buffer.cpp **** 
 451              		.loc 1 27 1
 452 030c 83308101 		ld	ra,24(sp)
 453              		.cfi_restore 1
 454 0310 03340101 		ld	s0,16(sp)
 455              		.cfi_restore 8
 456              		.cfi_def_cfa 2, 32
 457 0314 83348100 		ld	s1,8(sp)
 458              		.cfi_restore 9
 459              	.LVL48:
 460 0318 13010102 		addi	sp,sp,32
 461              		.cfi_def_cfa_offset 0
 462 031c 67800000 		jr	ra
 463              		.cfi_endproc
 464              	.LFE45:
 465              		.globl	__gxx_personality_v0
 466              		.section	.gcc_except_table,"a",@progbits
 467              	.LLSDA45:
 468 0000 FF       		.byte	0xff
 469 0001 FF       		.byte	0xff
 470 0002 03       		.byte	0x3
 471 0003 00       		.byte	0
 472              		.text
 474              		.globl	_ZN6BufferD1Ev
 475              		.set	_ZN6BufferD1Ev,_ZN6BufferD2Ev
 476              		.align	2
 477              		.globl	_ZN6BuffernwEm
 479              	_ZN6BuffernwEm:
 480              	.LFB50:
  72:test/buffer.cpp **** 
  73:test/buffer.cpp **** void* Buffer::operator new (size_t n){
 481              		.loc 1 73 38 is_stmt 1
 482              		.cfi_startproc
 483              	.LVL49:
 484 0320 130101FF 		addi	sp,sp,-16
 485              		.cfi_def_cfa_offset 16
 486 0324 23341100 		sd	ra,8(sp)
 487 0328 23308100 		sd	s0,0(sp)
 488              		.cfi_offset 1, -8
 489              		.cfi_offset 8, -16
 490 032c 13040101 		addi	s0,sp,16
 491              		.cfi_def_cfa 8, 0
GAS LISTING /tmp/ccEl49qZ.s 			page 12


  74:test/buffer.cpp **** 
  75:test/buffer.cpp ****     n = MemoryAllocator::allocateBytes(n);
 492              		.loc 1 75 5
 493              	.LVL50:
 494              	.LBB9:
 495              	.LBB10:
 496              		.file 2 "test/../h/../h/../h/../h/MemoryAllocator.hpp"
   1:test/../h/../h/../h/../h/MemoryAllocator.hpp **** //
   2:test/../h/../h/../h/../h/MemoryAllocator.hpp **** // Created by os on 8/2/22.
   3:test/../h/../h/../h/../h/MemoryAllocator.hpp **** //
   4:test/../h/../h/../h/../h/MemoryAllocator.hpp **** 
   5:test/../h/../h/../h/../h/MemoryAllocator.hpp **** #ifndef PROJECT_BASE_MEMORYALLOCATOR_HPP
   6:test/../h/../h/../h/../h/MemoryAllocator.hpp **** #define PROJECT_BASE_MEMORYALLOCATOR_HPP
   7:test/../h/../h/../h/../h/MemoryAllocator.hpp **** #include "../lib/hw.h"
   8:test/../h/../h/../h/../h/MemoryAllocator.hpp **** 
   9:test/../h/../h/../h/../h/MemoryAllocator.hpp **** struct BlockHeader{
  10:test/../h/../h/../h/../h/MemoryAllocator.hpp ****     BlockHeader* prev, *next;
  11:test/../h/../h/../h/../h/MemoryAllocator.hpp ****     size_t size;
  12:test/../h/../h/../h/../h/MemoryAllocator.hpp **** };
  13:test/../h/../h/../h/../h/MemoryAllocator.hpp **** 
  14:test/../h/../h/../h/../h/MemoryAllocator.hpp **** //sluzi da bih znala koliko mem da oslobodim sa free
  15:test/../h/../h/../h/../h/MemoryAllocator.hpp **** struct HiddenHeader{
  16:test/../h/../h/../h/../h/MemoryAllocator.hpp ****     size_t size;
  17:test/../h/../h/../h/../h/MemoryAllocator.hpp **** };
  18:test/../h/../h/../h/../h/MemoryAllocator.hpp **** 
  19:test/../h/../h/../h/../h/MemoryAllocator.hpp **** class MemoryAllocator {
  20:test/../h/../h/../h/../h/MemoryAllocator.hpp **** 
  21:test/../h/../h/../h/../h/MemoryAllocator.hpp **** public:
  22:test/../h/../h/../h/../h/MemoryAllocator.hpp **** 
  23:test/../h/../h/../h/../h/MemoryAllocator.hpp ****     static void* kmalloc(size_t);
  24:test/../h/../h/../h/../h/MemoryAllocator.hpp **** 
  25:test/../h/../h/../h/../h/MemoryAllocator.hpp ****     static int kfree (void* addr);
  26:test/../h/../h/../h/../h/MemoryAllocator.hpp **** 
  27:test/../h/../h/../h/../h/MemoryAllocator.hpp ****    static BlockHeader* freeMemHead;
  28:test/../h/../h/../h/../h/MemoryAllocator.hpp **** 
  29:test/../h/../h/../h/../h/MemoryAllocator.hpp ****    static void* hStart;
  30:test/../h/../h/../h/../h/MemoryAllocator.hpp **** 
  31:test/../h/../h/../h/../h/MemoryAllocator.hpp ****    static void* hEnd;
  32:test/../h/../h/../h/../h/MemoryAllocator.hpp **** 
  33:test/../h/../h/../h/../h/MemoryAllocator.hpp ****    static uint64 allocateBytes(size_t size){ return (size - 1)/MEM_BLOCK_SIZE + 1; };
 497              		.loc 2 33 46
 498              		.loc 2 33 59 is_stmt 0
 499 0330 1305F5FF 		addi	a0,a0,-1
 500              	.LVL51:
 501              		.loc 2 33 63
 502 0334 13556500 		srli	a0,a0,6
 503              	.LVL52:
 504              	.LBE10:
 505              	.LBE9:
  76:test/buffer.cpp **** 
  77:test/buffer.cpp ****     return MemoryAllocator::kmalloc(n);
 506              		.loc 1 77 5 is_stmt 1
 507              		.loc 1 77 36 is_stmt 0
 508 0338 13051500 		addi	a0,a0,1
 509              	.LVL53:
 510 033c 97000000 		call	_ZN15MemoryAllocator7kmallocEm@plt
 510      E7800000 
GAS LISTING /tmp/ccEl49qZ.s 			page 13


 511              	.LVL54:
  78:test/buffer.cpp **** }
 512              		.loc 1 78 1
 513 0344 83308100 		ld	ra,8(sp)
 514              		.cfi_restore 1
 515 0348 03340100 		ld	s0,0(sp)
 516              		.cfi_restore 8
 517              		.cfi_def_cfa 2, 16
 518 034c 13010101 		addi	sp,sp,16
 519              		.cfi_def_cfa_offset 0
 520 0350 67800000 		jr	ra
 521              		.cfi_endproc
 522              	.LFE50:
 524              		.align	2
 525              		.globl	_ZN6BuffernaEm
 527              	_ZN6BuffernaEm:
 528              	.LFB51:
  79:test/buffer.cpp **** 
  80:test/buffer.cpp **** void* Buffer::operator new[] (size_t n){
 529              		.loc 1 80 40 is_stmt 1
 530              		.cfi_startproc
 531              	.LVL55:
 532 0354 130101FF 		addi	sp,sp,-16
 533              		.cfi_def_cfa_offset 16
 534 0358 23341100 		sd	ra,8(sp)
 535 035c 23308100 		sd	s0,0(sp)
 536              		.cfi_offset 1, -8
 537              		.cfi_offset 8, -16
 538 0360 13040101 		addi	s0,sp,16
 539              		.cfi_def_cfa 8, 0
  81:test/buffer.cpp **** 
  82:test/buffer.cpp ****     n = MemoryAllocator::allocateBytes(n);
 540              		.loc 1 82 5
 541              	.LVL56:
 542              	.LBB11:
 543              	.LBB12:
 544              		.loc 2 33 46
 545              		.loc 2 33 59 is_stmt 0
 546 0364 1305F5FF 		addi	a0,a0,-1
 547              	.LVL57:
 548              		.loc 2 33 63
 549 0368 13556500 		srli	a0,a0,6
 550              	.LVL58:
 551              	.LBE12:
 552              	.LBE11:
  83:test/buffer.cpp **** 
  84:test/buffer.cpp ****     return MemoryAllocator::kmalloc(n);
 553              		.loc 1 84 5 is_stmt 1
 554              		.loc 1 84 36 is_stmt 0
 555 036c 13051500 		addi	a0,a0,1
 556              	.LVL59:
 557 0370 97000000 		call	_ZN15MemoryAllocator7kmallocEm@plt
 557      E7800000 
 558              	.LVL60:
  85:test/buffer.cpp **** }
 559              		.loc 1 85 1
 560 0378 83308100 		ld	ra,8(sp)
GAS LISTING /tmp/ccEl49qZ.s 			page 14


 561              		.cfi_restore 1
 562 037c 03340100 		ld	s0,0(sp)
 563              		.cfi_restore 8
 564              		.cfi_def_cfa 2, 16
 565 0380 13010101 		addi	sp,sp,16
 566              		.cfi_def_cfa_offset 0
 567 0384 67800000 		jr	ra
 568              		.cfi_endproc
 569              	.LFE51:
 571              		.align	2
 572              		.globl	_ZN6BufferdlEPv
 574              	_ZN6BufferdlEPv:
 575              	.LFB52:
  86:test/buffer.cpp **** void Buffer::operator delete (void* p) noexcept
  87:test/buffer.cpp **** {
 576              		.loc 1 87 1 is_stmt 1
 577              		.cfi_startproc
 578              		.cfi_personality 0x9b,DW.ref.__gxx_personality_v0
 579              		.cfi_lsda 0x1b,.LLSDA52
 580              	.LVL61:
 581 0388 130101FF 		addi	sp,sp,-16
 582              		.cfi_def_cfa_offset 16
 583 038c 23341100 		sd	ra,8(sp)
 584 0390 23308100 		sd	s0,0(sp)
 585              		.cfi_offset 1, -8
 586              		.cfi_offset 8, -16
 587 0394 13040101 		addi	s0,sp,16
 588              		.cfi_def_cfa 8, 0
  88:test/buffer.cpp ****     MemoryAllocator::kfree(p);
 589              		.loc 1 88 5
 590              		.loc 1 88 27 is_stmt 0
 591 0398 97000000 		call	_ZN15MemoryAllocator5kfreeEPv@plt
 591      E7800000 
 592              	.LVL62:
  89:test/buffer.cpp **** }
 593              		.loc 1 89 1
 594 03a0 83308100 		ld	ra,8(sp)
 595              		.cfi_restore 1
 596 03a4 03340100 		ld	s0,0(sp)
 597              		.cfi_restore 8
 598              		.cfi_def_cfa 2, 16
 599 03a8 13010101 		addi	sp,sp,16
 600              		.cfi_def_cfa_offset 0
 601 03ac 67800000 		jr	ra
 602              		.cfi_endproc
 603              	.LFE52:
 604              		.section	.gcc_except_table
 605              	.LLSDA52:
 606 0004 FF       		.byte	0xff
 607 0005 FF       		.byte	0xff
 608 0006 03       		.byte	0x3
 609 0007 00       		.byte	0
 610              		.text
 612              		.align	2
 613              		.globl	_ZN6BufferdaEPv
 615              	_ZN6BufferdaEPv:
 616              	.LFB53:
GAS LISTING /tmp/ccEl49qZ.s 			page 15


  90:test/buffer.cpp **** void Buffer::operator delete[] (void* p) noexcept
  91:test/buffer.cpp **** {
 617              		.loc 1 91 1 is_stmt 1
 618              		.cfi_startproc
 619              		.cfi_personality 0x9b,DW.ref.__gxx_personality_v0
 620              		.cfi_lsda 0x1b,.LLSDA53
 621              	.LVL63:
 622 03b0 130101FF 		addi	sp,sp,-16
 623              		.cfi_def_cfa_offset 16
 624 03b4 23341100 		sd	ra,8(sp)
 625 03b8 23308100 		sd	s0,0(sp)
 626              		.cfi_offset 1, -8
 627              		.cfi_offset 8, -16
 628 03bc 13040101 		addi	s0,sp,16
 629              		.cfi_def_cfa 8, 0
  92:test/buffer.cpp ****     MemoryAllocator::kfree(p);
 630              		.loc 1 92 5
 631              		.loc 1 92 27 is_stmt 0
 632 03c0 97000000 		call	_ZN15MemoryAllocator5kfreeEPv@plt
 632      E7800000 
 633              	.LVL64:
  93:test/buffer.cpp **** }...
 634              		.loc 1 93 1
 635 03c8 83308100 		ld	ra,8(sp)
 636              		.cfi_restore 1
 637 03cc 03340100 		ld	s0,0(sp)
 638              		.cfi_restore 8
 639              		.cfi_def_cfa 2, 16
 640 03d0 13010101 		addi	sp,sp,16
 641              		.cfi_def_cfa_offset 0
 642 03d4 67800000 		jr	ra
 643              		.cfi_endproc
 644              	.LFE53:
 645              		.section	.gcc_except_table
 646              	.LLSDA53:
 647 0008 FF       		.byte	0xff
 648 0009 FF       		.byte	0xff
 649 000a 03       		.byte	0x3
 650 000b 00       		.byte	0
 651              		.text
 653              	.Letext0:
 654              		.file 3 "test/../h/../lib/hw.h"
 655              		.file 4 "test/../h/../h/TCB.hpp"
 656              		.file 5 "test/../h/../h/list.hpp"
 657              		.file 6 "test/../h/../h/kSemaphore.hpp"
 658              		.file 7 "test/../h/syscall_c.h"
 659              		.file 8 "test/buffer.hpp"
 660              		.file 9 "test/../h/printing.hpp"
 4305              		.align	3
 4308              	DW.ref.__gxx_personality_v0:
 4309 0000 00000000 		.dword	__gxx_personality_v0
 4309      00000000 
 4310              		.ident	"GCC: (Ubuntu 9.4.0-1ubuntu1~20.04) 9.4.0"
 4311              		.section	.note.GNU-stack,"",@progbits
GAS LISTING /tmp/ccEl49qZ.s 			page 16

