GAS LISTING /tmp/ccxRZoB4.s 			page 1


   1              		.file	"userMain.cpp"
   2              		.option pic
   3              		.option norelax
   4              		.text
   5              	.Ltext0:
   6              		.section	.text._ZN19ConsumerProducerCPP8ConsumerD2Ev,"axG",@progbits,_ZN19ConsumerProducerCPP8Cons
   7              		.align	2
   8              		.weak	_ZN19ConsumerProducerCPP8ConsumerD2Ev
  10              	_ZN19ConsumerProducerCPP8ConsumerD2Ev:
  11              	.LFB112:
  12              		.file 1 "test/../test/ConsumerProducer_CPP_API_test.hpp"
   1:test/../test/ConsumerProducer_CPP_API_test.hpp **** //
   2:test/../test/ConsumerProducer_CPP_API_test.hpp **** // Created by os on 4/17/22.
   3:test/../test/ConsumerProducer_CPP_API_test.hpp **** //
   4:test/../test/ConsumerProducer_CPP_API_test.hpp **** 
   5:test/../test/ConsumerProducer_CPP_API_test.hpp **** #ifndef XV6_CONSUMERPRODUCER_CPP_API_TEST_HPP
   6:test/../test/ConsumerProducer_CPP_API_test.hpp **** #define XV6_CONSUMERPRODUCER_CPP_API_TEST_HPP
   7:test/../test/ConsumerProducer_CPP_API_test.hpp **** 
   8:test/../test/ConsumerProducer_CPP_API_test.hpp **** #include "../h/syscall_cpp.hpp"
   9:test/../test/ConsumerProducer_CPP_API_test.hpp **** 
  10:test/../test/ConsumerProducer_CPP_API_test.hpp **** #include "buffer_CPP_API.hpp"
  11:test/../test/ConsumerProducer_CPP_API_test.hpp **** #include "../h/printing.hpp"
  12:test/../test/ConsumerProducer_CPP_API_test.hpp **** 
  13:test/../test/ConsumerProducer_CPP_API_test.hpp **** namespace ConsumerProducerCPP {
  14:test/../test/ConsumerProducer_CPP_API_test.hpp **** 
  15:test/../test/ConsumerProducer_CPP_API_test.hpp ****     Semaphore *waitForAll;
  16:test/../test/ConsumerProducer_CPP_API_test.hpp **** 
  17:test/../test/ConsumerProducer_CPP_API_test.hpp ****     struct thread_data {
  18:test/../test/ConsumerProducer_CPP_API_test.hpp ****         int id;
  19:test/../test/ConsumerProducer_CPP_API_test.hpp ****         BufferCPP *buffer;
  20:test/../test/ConsumerProducer_CPP_API_test.hpp ****         Semaphore *sem;
  21:test/../test/ConsumerProducer_CPP_API_test.hpp ****     };
  22:test/../test/ConsumerProducer_CPP_API_test.hpp **** 
  23:test/../test/ConsumerProducer_CPP_API_test.hpp ****     volatile int threadEnd = 0;
  24:test/../test/ConsumerProducer_CPP_API_test.hpp **** 
  25:test/../test/ConsumerProducer_CPP_API_test.hpp ****     class ProducerKeyborad : public Thread {
  26:test/../test/ConsumerProducer_CPP_API_test.hpp ****         thread_data *td;
  27:test/../test/ConsumerProducer_CPP_API_test.hpp ****     public:
  28:test/../test/ConsumerProducer_CPP_API_test.hpp ****         ProducerKeyborad(thread_data *_td) : Thread(), td(_td) {}
  29:test/../test/ConsumerProducer_CPP_API_test.hpp **** 
  30:test/../test/ConsumerProducer_CPP_API_test.hpp ****         void run() override {
  31:test/../test/ConsumerProducer_CPP_API_test.hpp ****             int key;
  32:test/../test/ConsumerProducer_CPP_API_test.hpp ****             int i = 0;
  33:test/../test/ConsumerProducer_CPP_API_test.hpp ****             while ((key = getc()) != 0x20) {
  34:test/../test/ConsumerProducer_CPP_API_test.hpp ****                 td->buffer->put(key);
  35:test/../test/ConsumerProducer_CPP_API_test.hpp ****                 i++;
  36:test/../test/ConsumerProducer_CPP_API_test.hpp ****             }
  37:test/../test/ConsumerProducer_CPP_API_test.hpp **** 
  38:test/../test/ConsumerProducer_CPP_API_test.hpp ****             threadEnd = 1;
  39:test/../test/ConsumerProducer_CPP_API_test.hpp ****             td->buffer->put('!');
  40:test/../test/ConsumerProducer_CPP_API_test.hpp **** 
  41:test/../test/ConsumerProducer_CPP_API_test.hpp ****             td->sem->signal();
  42:test/../test/ConsumerProducer_CPP_API_test.hpp ****         }
  43:test/../test/ConsumerProducer_CPP_API_test.hpp ****     };
  44:test/../test/ConsumerProducer_CPP_API_test.hpp **** 
  45:test/../test/ConsumerProducer_CPP_API_test.hpp ****     class Producer : public Thread {
  46:test/../test/ConsumerProducer_CPP_API_test.hpp ****         thread_data *td;
GAS LISTING /tmp/ccxRZoB4.s 			page 2


  47:test/../test/ConsumerProducer_CPP_API_test.hpp ****     public:
  48:test/../test/ConsumerProducer_CPP_API_test.hpp ****         Producer(thread_data *_td) : Thread(), td(_td) {}
  49:test/../test/ConsumerProducer_CPP_API_test.hpp **** 
  50:test/../test/ConsumerProducer_CPP_API_test.hpp ****         void run() override {
  51:test/../test/ConsumerProducer_CPP_API_test.hpp ****             int i = 0;
  52:test/../test/ConsumerProducer_CPP_API_test.hpp ****             while (!threadEnd) {
  53:test/../test/ConsumerProducer_CPP_API_test.hpp ****                 td->buffer->put(td->id + '0');
  54:test/../test/ConsumerProducer_CPP_API_test.hpp ****                 i++;
  55:test/../test/ConsumerProducer_CPP_API_test.hpp ****                 //Thread::sleep(0);
  56:test/../test/ConsumerProducer_CPP_API_test.hpp ****                 //printInt((i+td->id)%5);
  57:test/../test/ConsumerProducer_CPP_API_test.hpp ****                 Thread::sleep((i+td->id)%5);
  58:test/../test/ConsumerProducer_CPP_API_test.hpp ****             }
  59:test/../test/ConsumerProducer_CPP_API_test.hpp **** 
  60:test/../test/ConsumerProducer_CPP_API_test.hpp ****             td->sem->signal();
  61:test/../test/ConsumerProducer_CPP_API_test.hpp ****         }
  62:test/../test/ConsumerProducer_CPP_API_test.hpp ****     };
  63:test/../test/ConsumerProducer_CPP_API_test.hpp **** 
  64:test/../test/ConsumerProducer_CPP_API_test.hpp ****     class Consumer : public Thread {
  13              		.loc 1 64 11
  14              		.cfi_startproc
  15              	.LVL0:
  16 0000 130101FF 		addi	sp,sp,-16
  17              		.cfi_def_cfa_offset 16
  18 0004 23348100 		sd	s0,8(sp)
  19              		.cfi_offset 8, -8
  20 0008 13040101 		addi	s0,sp,16
  21              		.cfi_def_cfa 8, 0
  22              		.loc 1 64 11 is_stmt 0
  23 000c 03348100 		ld	s0,8(sp)
  24              		.cfi_restore 8
  25              		.cfi_def_cfa 2, 16
  26 0010 13010101 		addi	sp,sp,16
  27              		.cfi_def_cfa_offset 0
  28 0014 67800000 		jr	ra
  29              		.cfi_endproc
  30              	.LFE112:
  32              		.weak	_ZN19ConsumerProducerCPP8ConsumerD1Ev
  33              		.set	_ZN19ConsumerProducerCPP8ConsumerD1Ev,_ZN19ConsumerProducerCPP8ConsumerD2Ev
  34              		.section	.text._ZN19ConsumerProducerCPP8ProducerD2Ev,"axG",@progbits,_ZN19ConsumerProducerCPP8Prod
  35              		.align	2
  36              		.weak	_ZN19ConsumerProducerCPP8ProducerD2Ev
  38              	_ZN19ConsumerProducerCPP8ProducerD2Ev:
  39              	.LFB116:
  45:test/../test/ConsumerProducer_CPP_API_test.hpp ****         thread_data *td;
  40              		.loc 1 45 11 is_stmt 1
  41              		.cfi_startproc
  42              	.LVL1:
  43 0000 130101FF 		addi	sp,sp,-16
  44              		.cfi_def_cfa_offset 16
  45 0004 23348100 		sd	s0,8(sp)
  46              		.cfi_offset 8, -8
  47 0008 13040101 		addi	s0,sp,16
  48              		.cfi_def_cfa 8, 0
  45:test/../test/ConsumerProducer_CPP_API_test.hpp ****         thread_data *td;
  49              		.loc 1 45 11 is_stmt 0
  50 000c 03348100 		ld	s0,8(sp)
  51              		.cfi_restore 8
GAS LISTING /tmp/ccxRZoB4.s 			page 3


  52              		.cfi_def_cfa 2, 16
  53 0010 13010101 		addi	sp,sp,16
  54              		.cfi_def_cfa_offset 0
  55 0014 67800000 		jr	ra
  56              		.cfi_endproc
  57              	.LFE116:
  59              		.weak	_ZN19ConsumerProducerCPP8ProducerD1Ev
  60              		.set	_ZN19ConsumerProducerCPP8ProducerD1Ev,_ZN19ConsumerProducerCPP8ProducerD2Ev
  61              		.section	.text._ZN19ConsumerProducerCPP16ProducerKeyboradD2Ev,"axG",@progbits,_ZN19ConsumerProduce
  62              		.align	2
  63              		.weak	_ZN19ConsumerProducerCPP16ProducerKeyboradD2Ev
  65              	_ZN19ConsumerProducerCPP16ProducerKeyboradD2Ev:
  66              	.LFB120:
  25:test/../test/ConsumerProducer_CPP_API_test.hpp ****         thread_data *td;
  67              		.loc 1 25 11 is_stmt 1
  68              		.cfi_startproc
  69              	.LVL2:
  70 0000 130101FF 		addi	sp,sp,-16
  71              		.cfi_def_cfa_offset 16
  72 0004 23348100 		sd	s0,8(sp)
  73              		.cfi_offset 8, -8
  74 0008 13040101 		addi	s0,sp,16
  75              		.cfi_def_cfa 8, 0
  25:test/../test/ConsumerProducer_CPP_API_test.hpp ****         thread_data *td;
  76              		.loc 1 25 11 is_stmt 0
  77 000c 03348100 		ld	s0,8(sp)
  78              		.cfi_restore 8
  79              		.cfi_def_cfa 2, 16
  80 0010 13010101 		addi	sp,sp,16
  81              		.cfi_def_cfa_offset 0
  82 0014 67800000 		jr	ra
  83              		.cfi_endproc
  84              	.LFE120:
  86              		.weak	_ZN19ConsumerProducerCPP16ProducerKeyboradD1Ev
  87              		.set	_ZN19ConsumerProducerCPP16ProducerKeyboradD1Ev,_ZN19ConsumerProducerCPP16ProducerKeyboradD2Ev
  88              		.section	.text._ZN8ConsumerD2Ev,"axG",@progbits,_ZN8ConsumerD5Ev,comdat
  89              		.align	2
  90              		.weak	_ZN8ConsumerD2Ev
  92              	_ZN8ConsumerD2Ev:
  93              	.LFB124:
  94              		.file 2 "test/../test/ConsumerProducer_CPP_Sync_API_test.hpp"
   1:test/../test/ConsumerProducer_CPP_Sync_API_test.hpp **** //
   2:test/../test/ConsumerProducer_CPP_Sync_API_test.hpp **** // Created by os on 4/17/22.
   3:test/../test/ConsumerProducer_CPP_Sync_API_test.hpp **** //
   4:test/../test/ConsumerProducer_CPP_Sync_API_test.hpp **** 
   5:test/../test/ConsumerProducer_CPP_Sync_API_test.hpp **** #ifndef XV6_CONSUMERPRODUCER_CPP_Sync_API_TEST_H
   6:test/../test/ConsumerProducer_CPP_Sync_API_test.hpp **** #define XV6_CONSUMERPRODUCER_CPP_Sync_API_TEST_H
   7:test/../test/ConsumerProducer_CPP_Sync_API_test.hpp **** 
   8:test/../test/ConsumerProducer_CPP_Sync_API_test.hpp **** #include "../h/syscall_cpp.hpp"
   9:test/../test/ConsumerProducer_CPP_Sync_API_test.hpp **** 
  10:test/../test/ConsumerProducer_CPP_Sync_API_test.hpp **** #include "buffer_CPP_API.hpp"
  11:test/../test/ConsumerProducer_CPP_Sync_API_test.hpp **** 
  12:test/../test/ConsumerProducer_CPP_Sync_API_test.hpp **** Semaphore* waitForAll;
  13:test/../test/ConsumerProducer_CPP_Sync_API_test.hpp **** 
  14:test/../test/ConsumerProducer_CPP_Sync_API_test.hpp **** struct thread_data {
  15:test/../test/ConsumerProducer_CPP_Sync_API_test.hpp ****     int id;
  16:test/../test/ConsumerProducer_CPP_Sync_API_test.hpp ****     BufferCPP *buffer;
GAS LISTING /tmp/ccxRZoB4.s 			page 4


  17:test/../test/ConsumerProducer_CPP_Sync_API_test.hpp ****     Semaphore* wait;
  18:test/../test/ConsumerProducer_CPP_Sync_API_test.hpp **** };
  19:test/../test/ConsumerProducer_CPP_Sync_API_test.hpp **** 
  20:test/../test/ConsumerProducer_CPP_Sync_API_test.hpp **** volatile int threadEnd = 0;
  21:test/../test/ConsumerProducer_CPP_Sync_API_test.hpp **** 
  22:test/../test/ConsumerProducer_CPP_Sync_API_test.hpp **** class ProducerKeyboard:public Thread {
  23:test/../test/ConsumerProducer_CPP_Sync_API_test.hpp ****     thread_data* td;
  24:test/../test/ConsumerProducer_CPP_Sync_API_test.hpp ****     void producerKeyboard(void *arg);
  25:test/../test/ConsumerProducer_CPP_Sync_API_test.hpp **** public:
  26:test/../test/ConsumerProducer_CPP_Sync_API_test.hpp ****     ProducerKeyboard(thread_data* _td):Thread(), td(_td) {}
  27:test/../test/ConsumerProducer_CPP_Sync_API_test.hpp **** 
  28:test/../test/ConsumerProducer_CPP_Sync_API_test.hpp ****     void run() override {
  29:test/../test/ConsumerProducer_CPP_Sync_API_test.hpp ****         producerKeyboard(td);
  30:test/../test/ConsumerProducer_CPP_Sync_API_test.hpp ****     }
  31:test/../test/ConsumerProducer_CPP_Sync_API_test.hpp **** };
  32:test/../test/ConsumerProducer_CPP_Sync_API_test.hpp **** 
  33:test/../test/ConsumerProducer_CPP_Sync_API_test.hpp **** void ProducerKeyboard::producerKeyboard(void *arg) {
  34:test/../test/ConsumerProducer_CPP_Sync_API_test.hpp ****     struct thread_data *data = (struct thread_data *) arg;
  35:test/../test/ConsumerProducer_CPP_Sync_API_test.hpp **** 
  36:test/../test/ConsumerProducer_CPP_Sync_API_test.hpp ****     int key;
  37:test/../test/ConsumerProducer_CPP_Sync_API_test.hpp ****     int i = 0;
  38:test/../test/ConsumerProducer_CPP_Sync_API_test.hpp ****     while ((key = getc()) != 0x20) {
  39:test/../test/ConsumerProducer_CPP_Sync_API_test.hpp ****         data->buffer->put(key);
  40:test/../test/ConsumerProducer_CPP_Sync_API_test.hpp ****         i++;
  41:test/../test/ConsumerProducer_CPP_Sync_API_test.hpp **** 
  42:test/../test/ConsumerProducer_CPP_Sync_API_test.hpp ****         if (i % (10 * data->id) == 0) {
  43:test/../test/ConsumerProducer_CPP_Sync_API_test.hpp ****             Thread::dispatch();
  44:test/../test/ConsumerProducer_CPP_Sync_API_test.hpp ****         }
  45:test/../test/ConsumerProducer_CPP_Sync_API_test.hpp ****     }
  46:test/../test/ConsumerProducer_CPP_Sync_API_test.hpp **** 
  47:test/../test/ConsumerProducer_CPP_Sync_API_test.hpp ****     threadEnd = 1;
  48:test/../test/ConsumerProducer_CPP_Sync_API_test.hpp ****     td->buffer->put('!');
  49:test/../test/ConsumerProducer_CPP_Sync_API_test.hpp **** 
  50:test/../test/ConsumerProducer_CPP_Sync_API_test.hpp ****     data->wait->signal();
  51:test/../test/ConsumerProducer_CPP_Sync_API_test.hpp **** }
  52:test/../test/ConsumerProducer_CPP_Sync_API_test.hpp **** 
  53:test/../test/ConsumerProducer_CPP_Sync_API_test.hpp **** class Producer:public Thread {
  54:test/../test/ConsumerProducer_CPP_Sync_API_test.hpp ****     thread_data* td;
  55:test/../test/ConsumerProducer_CPP_Sync_API_test.hpp ****     void producer(void *arg);
  56:test/../test/ConsumerProducer_CPP_Sync_API_test.hpp **** public:
  57:test/../test/ConsumerProducer_CPP_Sync_API_test.hpp ****     Producer(thread_data* _td):Thread(), td(_td) {}
  58:test/../test/ConsumerProducer_CPP_Sync_API_test.hpp **** 
  59:test/../test/ConsumerProducer_CPP_Sync_API_test.hpp ****     void run() override {
  60:test/../test/ConsumerProducer_CPP_Sync_API_test.hpp ****         producer(td);
  61:test/../test/ConsumerProducer_CPP_Sync_API_test.hpp ****     }
  62:test/../test/ConsumerProducer_CPP_Sync_API_test.hpp **** };
  63:test/../test/ConsumerProducer_CPP_Sync_API_test.hpp **** 
  64:test/../test/ConsumerProducer_CPP_Sync_API_test.hpp **** void Producer::producer(void *arg) {
  65:test/../test/ConsumerProducer_CPP_Sync_API_test.hpp ****     struct thread_data *data = (struct thread_data *) arg;
  66:test/../test/ConsumerProducer_CPP_Sync_API_test.hpp **** 
  67:test/../test/ConsumerProducer_CPP_Sync_API_test.hpp ****     int i = 0;
  68:test/../test/ConsumerProducer_CPP_Sync_API_test.hpp ****     while (!threadEnd) {
  69:test/../test/ConsumerProducer_CPP_Sync_API_test.hpp ****         data->buffer->put(data->id + '0');
  70:test/../test/ConsumerProducer_CPP_Sync_API_test.hpp ****         i++;
  71:test/../test/ConsumerProducer_CPP_Sync_API_test.hpp **** 
  72:test/../test/ConsumerProducer_CPP_Sync_API_test.hpp ****         if (i % (10 * data->id) == 0) {
  73:test/../test/ConsumerProducer_CPP_Sync_API_test.hpp ****             Thread::dispatch();
GAS LISTING /tmp/ccxRZoB4.s 			page 5


  74:test/../test/ConsumerProducer_CPP_Sync_API_test.hpp ****         }
  75:test/../test/ConsumerProducer_CPP_Sync_API_test.hpp ****     }
  76:test/../test/ConsumerProducer_CPP_Sync_API_test.hpp **** 
  77:test/../test/ConsumerProducer_CPP_Sync_API_test.hpp ****     data->wait->signal();
  78:test/../test/ConsumerProducer_CPP_Sync_API_test.hpp **** }
  79:test/../test/ConsumerProducer_CPP_Sync_API_test.hpp **** 
  80:test/../test/ConsumerProducer_CPP_Sync_API_test.hpp **** class Consumer:public Thread {
  95              		.loc 2 80 7 is_stmt 1
  96              		.cfi_startproc
  97              	.LVL3:
  98 0000 130101FF 		addi	sp,sp,-16
  99              		.cfi_def_cfa_offset 16
 100 0004 23348100 		sd	s0,8(sp)
 101              		.cfi_offset 8, -8
 102 0008 13040101 		addi	s0,sp,16
 103              		.cfi_def_cfa 8, 0
 104              		.loc 2 80 7 is_stmt 0
 105 000c 03348100 		ld	s0,8(sp)
 106              		.cfi_restore 8
 107              		.cfi_def_cfa 2, 16
 108 0010 13010101 		addi	sp,sp,16
 109              		.cfi_def_cfa_offset 0
 110 0014 67800000 		jr	ra
 111              		.cfi_endproc
 112              	.LFE124:
 114              		.weak	_ZN8ConsumerD1Ev
 115              		.set	_ZN8ConsumerD1Ev,_ZN8ConsumerD2Ev
 116              		.section	.text._ZN8ProducerD2Ev,"axG",@progbits,_ZN8ProducerD5Ev,comdat
 117              		.align	2
 118              		.weak	_ZN8ProducerD2Ev
 120              	_ZN8ProducerD2Ev:
 121              	.LFB128:
  53:test/../test/ConsumerProducer_CPP_Sync_API_test.hpp ****     thread_data* td;
 122              		.loc 2 53 7 is_stmt 1
 123              		.cfi_startproc
 124              	.LVL4:
 125 0000 130101FF 		addi	sp,sp,-16
 126              		.cfi_def_cfa_offset 16
 127 0004 23348100 		sd	s0,8(sp)
 128              		.cfi_offset 8, -8
 129 0008 13040101 		addi	s0,sp,16
 130              		.cfi_def_cfa 8, 0
  53:test/../test/ConsumerProducer_CPP_Sync_API_test.hpp ****     thread_data* td;
 131              		.loc 2 53 7 is_stmt 0
 132 000c 03348100 		ld	s0,8(sp)
 133              		.cfi_restore 8
 134              		.cfi_def_cfa 2, 16
 135 0010 13010101 		addi	sp,sp,16
 136              		.cfi_def_cfa_offset 0
 137 0014 67800000 		jr	ra
 138              		.cfi_endproc
 139              	.LFE128:
 141              		.weak	_ZN8ProducerD1Ev
 142              		.set	_ZN8ProducerD1Ev,_ZN8ProducerD2Ev
 143              		.section	.text._ZN16ProducerKeyboardD2Ev,"axG",@progbits,_ZN16ProducerKeyboardD5Ev,comdat
 144              		.align	2
 145              		.weak	_ZN16ProducerKeyboardD2Ev
GAS LISTING /tmp/ccxRZoB4.s 			page 6


 147              	_ZN16ProducerKeyboardD2Ev:
 148              	.LFB132:
  22:test/../test/ConsumerProducer_CPP_Sync_API_test.hpp ****     thread_data* td;
 149              		.loc 2 22 7 is_stmt 1
 150              		.cfi_startproc
 151              	.LVL5:
 152 0000 130101FF 		addi	sp,sp,-16
 153              		.cfi_def_cfa_offset 16
 154 0004 23348100 		sd	s0,8(sp)
 155              		.cfi_offset 8, -8
 156 0008 13040101 		addi	s0,sp,16
 157              		.cfi_def_cfa 8, 0
  22:test/../test/ConsumerProducer_CPP_Sync_API_test.hpp ****     thread_data* td;
 158              		.loc 2 22 7 is_stmt 0
 159 000c 03348100 		ld	s0,8(sp)
 160              		.cfi_restore 8
 161              		.cfi_def_cfa 2, 16
 162 0010 13010101 		addi	sp,sp,16
 163              		.cfi_def_cfa_offset 0
 164 0014 67800000 		jr	ra
 165              		.cfi_endproc
 166              	.LFE132:
 168              		.weak	_ZN16ProducerKeyboardD1Ev
 169              		.set	_ZN16ProducerKeyboardD1Ev,_ZN16ProducerKeyboardD2Ev
 170              		.section	.text._ZN7WorkerDD2Ev,"axG",@progbits,_ZN7WorkerDD5Ev,comdat
 171              		.align	2
 172              		.weak	_ZN7WorkerDD2Ev
 174              	_ZN7WorkerDD2Ev:
 175              	.LFB136:
 176              		.file 3 "test/../test/Threads_CPP_API_test.hpp"
   1:test/../test/Threads_CPP_API_test.hpp **** #ifndef XV6_THREADS_CPP_API_TEST_HPP
   2:test/../test/Threads_CPP_API_test.hpp **** #define XV6_THREADS_CPP_API_TEST_HPP
   3:test/../test/Threads_CPP_API_test.hpp **** 
   4:test/../test/Threads_CPP_API_test.hpp **** #include "../h/syscall_cpp.hpp"
   5:test/../test/Threads_CPP_API_test.hpp **** 
   6:test/../test/Threads_CPP_API_test.hpp **** #include "../h/printing.hpp"
   7:test/../test/Threads_CPP_API_test.hpp **** 
   8:test/../test/Threads_CPP_API_test.hpp **** bool finishedA = false;
   9:test/../test/Threads_CPP_API_test.hpp **** bool finishedB = false;
  10:test/../test/Threads_CPP_API_test.hpp **** bool finishedC = false;
  11:test/../test/Threads_CPP_API_test.hpp **** bool finishedD = false;
  12:test/../test/Threads_CPP_API_test.hpp **** 
  13:test/../test/Threads_CPP_API_test.hpp **** uint64 fibonacci(uint64 n) {
  14:test/../test/Threads_CPP_API_test.hpp ****     if (n == 0 || n == 1) { return n; }
  15:test/../test/Threads_CPP_API_test.hpp ****     if (n % 10 == 0) { thread_dispatch(); }
  16:test/../test/Threads_CPP_API_test.hpp ****     return fibonacci(n - 1) + fibonacci(n - 2);
  17:test/../test/Threads_CPP_API_test.hpp **** }
  18:test/../test/Threads_CPP_API_test.hpp **** 
  19:test/../test/Threads_CPP_API_test.hpp **** class WorkerA: public Thread {
  20:test/../test/Threads_CPP_API_test.hpp ****     void workerBodyA(void* arg);
  21:test/../test/Threads_CPP_API_test.hpp **** public:
  22:test/../test/Threads_CPP_API_test.hpp ****     WorkerA():Thread() {}
  23:test/../test/Threads_CPP_API_test.hpp **** 
  24:test/../test/Threads_CPP_API_test.hpp ****     void run() override {
  25:test/../test/Threads_CPP_API_test.hpp ****         workerBodyA(nullptr);
  26:test/../test/Threads_CPP_API_test.hpp ****     }
  27:test/../test/Threads_CPP_API_test.hpp **** };
GAS LISTING /tmp/ccxRZoB4.s 			page 7


  28:test/../test/Threads_CPP_API_test.hpp **** 
  29:test/../test/Threads_CPP_API_test.hpp **** class WorkerB: public Thread {
  30:test/../test/Threads_CPP_API_test.hpp ****     void workerBodyB(void* arg);
  31:test/../test/Threads_CPP_API_test.hpp **** public:
  32:test/../test/Threads_CPP_API_test.hpp ****     WorkerB():Thread() {}
  33:test/../test/Threads_CPP_API_test.hpp **** 
  34:test/../test/Threads_CPP_API_test.hpp ****     void run() override {
  35:test/../test/Threads_CPP_API_test.hpp ****         workerBodyB(nullptr);
  36:test/../test/Threads_CPP_API_test.hpp ****     }
  37:test/../test/Threads_CPP_API_test.hpp **** };
  38:test/../test/Threads_CPP_API_test.hpp **** 
  39:test/../test/Threads_CPP_API_test.hpp **** class WorkerC: public Thread {
  40:test/../test/Threads_CPP_API_test.hpp ****     void workerBodyC(void* arg);
  41:test/../test/Threads_CPP_API_test.hpp **** public:
  42:test/../test/Threads_CPP_API_test.hpp ****     WorkerC():Thread() {}
  43:test/../test/Threads_CPP_API_test.hpp **** 
  44:test/../test/Threads_CPP_API_test.hpp ****     void run() override {
  45:test/../test/Threads_CPP_API_test.hpp ****         workerBodyC(nullptr);
  46:test/../test/Threads_CPP_API_test.hpp ****     }
  47:test/../test/Threads_CPP_API_test.hpp **** };
  48:test/../test/Threads_CPP_API_test.hpp **** 
  49:test/../test/Threads_CPP_API_test.hpp **** class WorkerD: public Thread {
 177              		.loc 3 49 7 is_stmt 1
 178              		.cfi_startproc
 179              	.LVL6:
 180 0000 130101FF 		addi	sp,sp,-16
 181              		.cfi_def_cfa_offset 16
 182 0004 23348100 		sd	s0,8(sp)
 183              		.cfi_offset 8, -8
 184 0008 13040101 		addi	s0,sp,16
 185              		.cfi_def_cfa 8, 0
 186              		.loc 3 49 7 is_stmt 0
 187 000c 03348100 		ld	s0,8(sp)
 188              		.cfi_restore 8
 189              		.cfi_def_cfa 2, 16
 190 0010 13010101 		addi	sp,sp,16
 191              		.cfi_def_cfa_offset 0
 192 0014 67800000 		jr	ra
 193              		.cfi_endproc
 194              	.LFE136:
 196              		.weak	_ZN7WorkerDD1Ev
 197              		.set	_ZN7WorkerDD1Ev,_ZN7WorkerDD2Ev
 198              		.section	.text._ZN7WorkerCD2Ev,"axG",@progbits,_ZN7WorkerCD5Ev,comdat
 199              		.align	2
 200              		.weak	_ZN7WorkerCD2Ev
 202              	_ZN7WorkerCD2Ev:
 203              	.LFB140:
  39:test/../test/Threads_CPP_API_test.hpp ****     void workerBodyC(void* arg);
 204              		.loc 3 39 7 is_stmt 1
 205              		.cfi_startproc
 206              	.LVL7:
 207 0000 130101FF 		addi	sp,sp,-16
 208              		.cfi_def_cfa_offset 16
 209 0004 23348100 		sd	s0,8(sp)
 210              		.cfi_offset 8, -8
 211 0008 13040101 		addi	s0,sp,16
 212              		.cfi_def_cfa 8, 0
GAS LISTING /tmp/ccxRZoB4.s 			page 8


  39:test/../test/Threads_CPP_API_test.hpp ****     void workerBodyC(void* arg);
 213              		.loc 3 39 7 is_stmt 0
 214 000c 03348100 		ld	s0,8(sp)
 215              		.cfi_restore 8
 216              		.cfi_def_cfa 2, 16
 217 0010 13010101 		addi	sp,sp,16
 218              		.cfi_def_cfa_offset 0
 219 0014 67800000 		jr	ra
 220              		.cfi_endproc
 221              	.LFE140:
 223              		.weak	_ZN7WorkerCD1Ev
 224              		.set	_ZN7WorkerCD1Ev,_ZN7WorkerCD2Ev
 225              		.section	.text._ZN7WorkerBD2Ev,"axG",@progbits,_ZN7WorkerBD5Ev,comdat
 226              		.align	2
 227              		.weak	_ZN7WorkerBD2Ev
 229              	_ZN7WorkerBD2Ev:
 230              	.LFB144:
  29:test/../test/Threads_CPP_API_test.hpp ****     void workerBodyB(void* arg);
 231              		.loc 3 29 7 is_stmt 1
 232              		.cfi_startproc
 233              	.LVL8:
 234 0000 130101FF 		addi	sp,sp,-16
 235              		.cfi_def_cfa_offset 16
 236 0004 23348100 		sd	s0,8(sp)
 237              		.cfi_offset 8, -8
 238 0008 13040101 		addi	s0,sp,16
 239              		.cfi_def_cfa 8, 0
  29:test/../test/Threads_CPP_API_test.hpp ****     void workerBodyB(void* arg);
 240              		.loc 3 29 7 is_stmt 0
 241 000c 03348100 		ld	s0,8(sp)
 242              		.cfi_restore 8
 243              		.cfi_def_cfa 2, 16
 244 0010 13010101 		addi	sp,sp,16
 245              		.cfi_def_cfa_offset 0
 246 0014 67800000 		jr	ra
 247              		.cfi_endproc
 248              	.LFE144:
 250              		.weak	_ZN7WorkerBD1Ev
 251              		.set	_ZN7WorkerBD1Ev,_ZN7WorkerBD2Ev
 252              		.section	.text._ZN7WorkerAD2Ev,"axG",@progbits,_ZN7WorkerAD5Ev,comdat
 253              		.align	2
 254              		.weak	_ZN7WorkerAD2Ev
 256              	_ZN7WorkerAD2Ev:
 257              	.LFB148:
  19:test/../test/Threads_CPP_API_test.hpp ****     void workerBodyA(void* arg);
 258              		.loc 3 19 7 is_stmt 1
 259              		.cfi_startproc
 260              	.LVL9:
 261 0000 130101FF 		addi	sp,sp,-16
 262              		.cfi_def_cfa_offset 16
 263 0004 23348100 		sd	s0,8(sp)
 264              		.cfi_offset 8, -8
 265 0008 13040101 		addi	s0,sp,16
 266              		.cfi_def_cfa 8, 0
  19:test/../test/Threads_CPP_API_test.hpp ****     void workerBodyA(void* arg);
 267              		.loc 3 19 7 is_stmt 0
 268 000c 03348100 		ld	s0,8(sp)
GAS LISTING /tmp/ccxRZoB4.s 			page 9


 269              		.cfi_restore 8
 270              		.cfi_def_cfa 2, 16
 271 0010 13010101 		addi	sp,sp,16
 272              		.cfi_def_cfa_offset 0
 273 0014 67800000 		jr	ra
 274              		.cfi_endproc
 275              	.LFE148:
 277              		.weak	_ZN7WorkerAD1Ev
 278              		.set	_ZN7WorkerAD1Ev,_ZN7WorkerAD2Ev
 279              		.section	.text._ZN7WorkerAD0Ev,"axG",@progbits,_ZN7WorkerAD5Ev,comdat
 280              		.align	2
 281              		.weak	_ZN7WorkerAD0Ev
 283              	_ZN7WorkerAD0Ev:
 284              	.LFB150:
  19:test/../test/Threads_CPP_API_test.hpp ****     void workerBodyA(void* arg);
 285              		.loc 3 19 7 is_stmt 1
 286              		.cfi_startproc
 287              	.LVL10:
 288 0000 130101FF 		addi	sp,sp,-16
 289              		.cfi_def_cfa_offset 16
 290 0004 23341100 		sd	ra,8(sp)
 291 0008 23308100 		sd	s0,0(sp)
 292              		.cfi_offset 1, -8
 293              		.cfi_offset 8, -16
 294 000c 13040101 		addi	s0,sp,16
 295              		.cfi_def_cfa 8, 0
  19:test/../test/Threads_CPP_API_test.hpp ****     void workerBodyA(void* arg);
 296              		.loc 3 19 7 is_stmt 0
 297 0010 97000000 		call	_ZN6ThreaddlEPv@plt
 297      E7800000 
 298              	.LVL11:
 299 0018 83308100 		ld	ra,8(sp)
 300              		.cfi_restore 1
 301 001c 03340100 		ld	s0,0(sp)
 302              		.cfi_restore 8
 303              		.cfi_def_cfa 2, 16
 304 0020 13010101 		addi	sp,sp,16
 305              		.cfi_def_cfa_offset 0
 306 0024 67800000 		jr	ra
 307              		.cfi_endproc
 308              	.LFE150:
 310              		.section	.text._ZN7WorkerBD0Ev,"axG",@progbits,_ZN7WorkerBD5Ev,comdat
 311              		.align	2
 312              		.weak	_ZN7WorkerBD0Ev
 314              	_ZN7WorkerBD0Ev:
 315              	.LFB146:
  29:test/../test/Threads_CPP_API_test.hpp ****     void workerBodyB(void* arg);
 316              		.loc 3 29 7 is_stmt 1
 317              		.cfi_startproc
 318              	.LVL12:
 319 0000 130101FF 		addi	sp,sp,-16
 320              		.cfi_def_cfa_offset 16
 321 0004 23341100 		sd	ra,8(sp)
 322 0008 23308100 		sd	s0,0(sp)
 323              		.cfi_offset 1, -8
 324              		.cfi_offset 8, -16
 325 000c 13040101 		addi	s0,sp,16
GAS LISTING /tmp/ccxRZoB4.s 			page 10


 326              		.cfi_def_cfa 8, 0
  29:test/../test/Threads_CPP_API_test.hpp ****     void workerBodyB(void* arg);
 327              		.loc 3 29 7 is_stmt 0
 328 0010 97000000 		call	_ZN6ThreaddlEPv@plt
 328      E7800000 
 329              	.LVL13:
 330 0018 83308100 		ld	ra,8(sp)
 331              		.cfi_restore 1
 332 001c 03340100 		ld	s0,0(sp)
 333              		.cfi_restore 8
 334              		.cfi_def_cfa 2, 16
 335 0020 13010101 		addi	sp,sp,16
 336              		.cfi_def_cfa_offset 0
 337 0024 67800000 		jr	ra
 338              		.cfi_endproc
 339              	.LFE146:
 341              		.section	.text._ZN7WorkerCD0Ev,"axG",@progbits,_ZN7WorkerCD5Ev,comdat
 342              		.align	2
 343              		.weak	_ZN7WorkerCD0Ev
 345              	_ZN7WorkerCD0Ev:
 346              	.LFB142:
  39:test/../test/Threads_CPP_API_test.hpp ****     void workerBodyC(void* arg);
 347              		.loc 3 39 7 is_stmt 1
 348              		.cfi_startproc
 349              	.LVL14:
 350 0000 130101FF 		addi	sp,sp,-16
 351              		.cfi_def_cfa_offset 16
 352 0004 23341100 		sd	ra,8(sp)
 353 0008 23308100 		sd	s0,0(sp)
 354              		.cfi_offset 1, -8
 355              		.cfi_offset 8, -16
 356 000c 13040101 		addi	s0,sp,16
 357              		.cfi_def_cfa 8, 0
  39:test/../test/Threads_CPP_API_test.hpp ****     void workerBodyC(void* arg);
 358              		.loc 3 39 7 is_stmt 0
 359 0010 97000000 		call	_ZN6ThreaddlEPv@plt
 359      E7800000 
 360              	.LVL15:
 361 0018 83308100 		ld	ra,8(sp)
 362              		.cfi_restore 1
 363 001c 03340100 		ld	s0,0(sp)
 364              		.cfi_restore 8
 365              		.cfi_def_cfa 2, 16
 366 0020 13010101 		addi	sp,sp,16
 367              		.cfi_def_cfa_offset 0
 368 0024 67800000 		jr	ra
 369              		.cfi_endproc
 370              	.LFE142:
 372              		.section	.text._ZN7WorkerDD0Ev,"axG",@progbits,_ZN7WorkerDD5Ev,comdat
 373              		.align	2
 374              		.weak	_ZN7WorkerDD0Ev
 376              	_ZN7WorkerDD0Ev:
 377              	.LFB138:
 378              		.loc 3 49 7 is_stmt 1
 379              		.cfi_startproc
 380              	.LVL16:
 381 0000 130101FF 		addi	sp,sp,-16
GAS LISTING /tmp/ccxRZoB4.s 			page 11


 382              		.cfi_def_cfa_offset 16
 383 0004 23341100 		sd	ra,8(sp)
 384 0008 23308100 		sd	s0,0(sp)
 385              		.cfi_offset 1, -8
 386              		.cfi_offset 8, -16
 387 000c 13040101 		addi	s0,sp,16
 388              		.cfi_def_cfa 8, 0
 389              		.loc 3 49 7 is_stmt 0
 390 0010 97000000 		call	_ZN6ThreaddlEPv@plt
 390      E7800000 
 391              	.LVL17:
 392 0018 83308100 		ld	ra,8(sp)
 393              		.cfi_restore 1
 394 001c 03340100 		ld	s0,0(sp)
 395              		.cfi_restore 8
 396              		.cfi_def_cfa 2, 16
 397 0020 13010101 		addi	sp,sp,16
 398              		.cfi_def_cfa_offset 0
 399 0024 67800000 		jr	ra
 400              		.cfi_endproc
 401              	.LFE138:
 403              		.section	.text._ZN8ConsumerD0Ev,"axG",@progbits,_ZN8ConsumerD5Ev,comdat
 404              		.align	2
 405              		.weak	_ZN8ConsumerD0Ev
 407              	_ZN8ConsumerD0Ev:
 408              	.LFB126:
 409              		.loc 2 80 7 is_stmt 1
 410              		.cfi_startproc
 411              	.LVL18:
 412 0000 130101FF 		addi	sp,sp,-16
 413              		.cfi_def_cfa_offset 16
 414 0004 23341100 		sd	ra,8(sp)
 415 0008 23308100 		sd	s0,0(sp)
 416              		.cfi_offset 1, -8
 417              		.cfi_offset 8, -16
 418 000c 13040101 		addi	s0,sp,16
 419              		.cfi_def_cfa 8, 0
 420              		.loc 2 80 7 is_stmt 0
 421 0010 97000000 		call	_ZN6ThreaddlEPv@plt
 421      E7800000 
 422              	.LVL19:
 423 0018 83308100 		ld	ra,8(sp)
 424              		.cfi_restore 1
 425 001c 03340100 		ld	s0,0(sp)
 426              		.cfi_restore 8
 427              		.cfi_def_cfa 2, 16
 428 0020 13010101 		addi	sp,sp,16
 429              		.cfi_def_cfa_offset 0
 430 0024 67800000 		jr	ra
 431              		.cfi_endproc
 432              	.LFE126:
 434              		.section	.text._ZN8ProducerD0Ev,"axG",@progbits,_ZN8ProducerD5Ev,comdat
 435              		.align	2
 436              		.weak	_ZN8ProducerD0Ev
 438              	_ZN8ProducerD0Ev:
 439              	.LFB130:
  53:test/../test/ConsumerProducer_CPP_Sync_API_test.hpp ****     thread_data* td;
GAS LISTING /tmp/ccxRZoB4.s 			page 12


 440              		.loc 2 53 7 is_stmt 1
 441              		.cfi_startproc
 442              	.LVL20:
 443 0000 130101FF 		addi	sp,sp,-16
 444              		.cfi_def_cfa_offset 16
 445 0004 23341100 		sd	ra,8(sp)
 446 0008 23308100 		sd	s0,0(sp)
 447              		.cfi_offset 1, -8
 448              		.cfi_offset 8, -16
 449 000c 13040101 		addi	s0,sp,16
 450              		.cfi_def_cfa 8, 0
  53:test/../test/ConsumerProducer_CPP_Sync_API_test.hpp ****     thread_data* td;
 451              		.loc 2 53 7 is_stmt 0
 452 0010 97000000 		call	_ZN6ThreaddlEPv@plt
 452      E7800000 
 453              	.LVL21:
 454 0018 83308100 		ld	ra,8(sp)
 455              		.cfi_restore 1
 456 001c 03340100 		ld	s0,0(sp)
 457              		.cfi_restore 8
 458              		.cfi_def_cfa 2, 16
 459 0020 13010101 		addi	sp,sp,16
 460              		.cfi_def_cfa_offset 0
 461 0024 67800000 		jr	ra
 462              		.cfi_endproc
 463              	.LFE130:
 465              		.section	.text._ZN16ProducerKeyboardD0Ev,"axG",@progbits,_ZN16ProducerKeyboardD5Ev,comdat
 466              		.align	2
 467              		.weak	_ZN16ProducerKeyboardD0Ev
 469              	_ZN16ProducerKeyboardD0Ev:
 470              	.LFB134:
  22:test/../test/ConsumerProducer_CPP_Sync_API_test.hpp ****     thread_data* td;
 471              		.loc 2 22 7 is_stmt 1
 472              		.cfi_startproc
 473              	.LVL22:
 474 0000 130101FF 		addi	sp,sp,-16
 475              		.cfi_def_cfa_offset 16
 476 0004 23341100 		sd	ra,8(sp)
 477 0008 23308100 		sd	s0,0(sp)
 478              		.cfi_offset 1, -8
 479              		.cfi_offset 8, -16
 480 000c 13040101 		addi	s0,sp,16
 481              		.cfi_def_cfa 8, 0
  22:test/../test/ConsumerProducer_CPP_Sync_API_test.hpp ****     thread_data* td;
 482              		.loc 2 22 7 is_stmt 0
 483 0010 97000000 		call	_ZN6ThreaddlEPv@plt
 483      E7800000 
 484              	.LVL23:
 485 0018 83308100 		ld	ra,8(sp)
 486              		.cfi_restore 1
 487 001c 03340100 		ld	s0,0(sp)
 488              		.cfi_restore 8
 489              		.cfi_def_cfa 2, 16
 490 0020 13010101 		addi	sp,sp,16
 491              		.cfi_def_cfa_offset 0
 492 0024 67800000 		jr	ra
 493              		.cfi_endproc
GAS LISTING /tmp/ccxRZoB4.s 			page 13


 494              	.LFE134:
 496              		.section	.text._ZN19ConsumerProducerCPP8ConsumerD0Ev,"axG",@progbits,_ZN19ConsumerProducerCPP8Cons
 497              		.align	2
 498              		.weak	_ZN19ConsumerProducerCPP8ConsumerD0Ev
 500              	_ZN19ConsumerProducerCPP8ConsumerD0Ev:
 501              	.LFB114:
 502              		.loc 1 64 11 is_stmt 1
 503              		.cfi_startproc
 504              	.LVL24:
 505 0000 130101FF 		addi	sp,sp,-16
 506              		.cfi_def_cfa_offset 16
 507 0004 23341100 		sd	ra,8(sp)
 508 0008 23308100 		sd	s0,0(sp)
 509              		.cfi_offset 1, -8
 510              		.cfi_offset 8, -16
 511 000c 13040101 		addi	s0,sp,16
 512              		.cfi_def_cfa 8, 0
 513              		.loc 1 64 11 is_stmt 0
 514 0010 97000000 		call	_ZN6ThreaddlEPv@plt
 514      E7800000 
 515              	.LVL25:
 516 0018 83308100 		ld	ra,8(sp)
 517              		.cfi_restore 1
 518 001c 03340100 		ld	s0,0(sp)
 519              		.cfi_restore 8
 520              		.cfi_def_cfa 2, 16
 521 0020 13010101 		addi	sp,sp,16
 522              		.cfi_def_cfa_offset 0
 523 0024 67800000 		jr	ra
 524              		.cfi_endproc
 525              	.LFE114:
 527              		.section	.text._ZN19ConsumerProducerCPP16ProducerKeyboradD0Ev,"axG",@progbits,_ZN19ConsumerProduce
 528              		.align	2
 529              		.weak	_ZN19ConsumerProducerCPP16ProducerKeyboradD0Ev
 531              	_ZN19ConsumerProducerCPP16ProducerKeyboradD0Ev:
 532              	.LFB122:
  25:test/../test/ConsumerProducer_CPP_API_test.hpp ****         thread_data *td;
 533              		.loc 1 25 11 is_stmt 1
 534              		.cfi_startproc
 535              	.LVL26:
 536 0000 130101FF 		addi	sp,sp,-16
 537              		.cfi_def_cfa_offset 16
 538 0004 23341100 		sd	ra,8(sp)
 539 0008 23308100 		sd	s0,0(sp)
 540              		.cfi_offset 1, -8
 541              		.cfi_offset 8, -16
 542 000c 13040101 		addi	s0,sp,16
 543              		.cfi_def_cfa 8, 0
  25:test/../test/ConsumerProducer_CPP_API_test.hpp ****         thread_data *td;
 544              		.loc 1 25 11 is_stmt 0
 545 0010 97000000 		call	_ZN6ThreaddlEPv@plt
 545      E7800000 
 546              	.LVL27:
 547 0018 83308100 		ld	ra,8(sp)
 548              		.cfi_restore 1
 549 001c 03340100 		ld	s0,0(sp)
 550              		.cfi_restore 8
GAS LISTING /tmp/ccxRZoB4.s 			page 14


 551              		.cfi_def_cfa 2, 16
 552 0020 13010101 		addi	sp,sp,16
 553              		.cfi_def_cfa_offset 0
 554 0024 67800000 		jr	ra
 555              		.cfi_endproc
 556              	.LFE122:
 558              		.section	.text._ZN19ConsumerProducerCPP8ProducerD0Ev,"axG",@progbits,_ZN19ConsumerProducerCPP8Prod
 559              		.align	2
 560              		.weak	_ZN19ConsumerProducerCPP8ProducerD0Ev
 562              	_ZN19ConsumerProducerCPP8ProducerD0Ev:
 563              	.LFB118:
  45:test/../test/ConsumerProducer_CPP_API_test.hpp ****         thread_data *td;
 564              		.loc 1 45 11 is_stmt 1
 565              		.cfi_startproc
 566              	.LVL28:
 567 0000 130101FF 		addi	sp,sp,-16
 568              		.cfi_def_cfa_offset 16
 569 0004 23341100 		sd	ra,8(sp)
 570 0008 23308100 		sd	s0,0(sp)
 571              		.cfi_offset 1, -8
 572              		.cfi_offset 8, -16
 573 000c 13040101 		addi	s0,sp,16
 574              		.cfi_def_cfa 8, 0
  45:test/../test/ConsumerProducer_CPP_API_test.hpp ****         thread_data *td;
 575              		.loc 1 45 11 is_stmt 0
 576 0010 97000000 		call	_ZN6ThreaddlEPv@plt
 576      E7800000 
 577              	.LVL29:
 578 0018 83308100 		ld	ra,8(sp)
 579              		.cfi_restore 1
 580 001c 03340100 		ld	s0,0(sp)
 581              		.cfi_restore 8
 582              		.cfi_def_cfa 2, 16
 583 0020 13010101 		addi	sp,sp,16
 584              		.cfi_def_cfa_offset 0
 585 0024 67800000 		jr	ra
 586              		.cfi_endproc
 587              	.LFE118:
 589              		.section	.text._ZN19ConsumerProducerCPP16ProducerKeyborad3runEv,"axG",@progbits,_ZN19ConsumerProdu
 590              		.align	2
 591              		.weak	_ZN19ConsumerProducerCPP16ProducerKeyborad3runEv
 593              	_ZN19ConsumerProducerCPP16ProducerKeyborad3runEv:
 594              	.LFB97:
  30:test/../test/ConsumerProducer_CPP_API_test.hpp ****             int key;
 595              		.loc 1 30 14 is_stmt 1
 596              		.cfi_startproc
 597              	.LVL30:
 598 0000 130101FE 		addi	sp,sp,-32
 599              		.cfi_def_cfa_offset 32
 600 0004 233C1100 		sd	ra,24(sp)
 601 0008 23388100 		sd	s0,16(sp)
 602 000c 23349100 		sd	s1,8(sp)
 603              		.cfi_offset 1, -8
 604              		.cfi_offset 8, -16
 605              		.cfi_offset 9, -24
 606 0010 13040102 		addi	s0,sp,32
 607              		.cfi_def_cfa 8, 0
GAS LISTING /tmp/ccxRZoB4.s 			page 15


 608 0014 93040500 		mv	s1,a0
  31:test/../test/ConsumerProducer_CPP_API_test.hpp ****             int i = 0;
 609              		.loc 1 31 13
  32:test/../test/ConsumerProducer_CPP_API_test.hpp ****             while ((key = getc()) != 0x20) {
 610              		.loc 1 32 13
 611              	.LVL31:
 612              	.L43:
  33:test/../test/ConsumerProducer_CPP_API_test.hpp ****                 td->buffer->put(key);
 613              		.loc 1 33 13
  33:test/../test/ConsumerProducer_CPP_API_test.hpp ****                 td->buffer->put(key);
 614              		.loc 1 33 35
  33:test/../test/ConsumerProducer_CPP_API_test.hpp ****                 td->buffer->put(key);
 615              		.loc 1 33 31 is_stmt 0
 616 0018 97000000 		call	_Z4getcv@plt
 616      E7800000 
 617              	.LVL32:
  33:test/../test/ConsumerProducer_CPP_API_test.hpp ****                 td->buffer->put(key);
 618              		.loc 1 33 25
 619 0020 9B050500 		sext.w	a1,a0
 620              	.LVL33:
  33:test/../test/ConsumerProducer_CPP_API_test.hpp ****                 td->buffer->put(key);
 621              		.loc 1 33 35
 622 0024 93070002 		li	a5,32
 623 0028 638CF500 		beq	a1,a5,.L42
  34:test/../test/ConsumerProducer_CPP_API_test.hpp ****                 i++;
 624              		.loc 1 34 17 is_stmt 1
 625 002c 83B70401 		ld	a5,16(s1)
  34:test/../test/ConsumerProducer_CPP_API_test.hpp ****                 i++;
 626              		.loc 1 34 32 is_stmt 0
 627 0030 03B58700 		ld	a0,8(a5)
 628 0034 97000000 		call	_ZN9BufferCPP3putEi@plt
 628      E7800000 
 629              	.LVL34:
  35:test/../test/ConsumerProducer_CPP_API_test.hpp ****             }
 630              		.loc 1 35 17 is_stmt 1
  33:test/../test/ConsumerProducer_CPP_API_test.hpp ****                 td->buffer->put(key);
 631              		.loc 1 33 13 is_stmt 0
 632 003c 6FF0DFFD 		j	.L43
 633              	.LVL35:
 634              	.L42:
  38:test/../test/ConsumerProducer_CPP_API_test.hpp ****             td->buffer->put('!');
 635              		.loc 1 38 13 is_stmt 1
  38:test/../test/ConsumerProducer_CPP_API_test.hpp ****             td->buffer->put('!');
 636              		.loc 1 38 23 is_stmt 0
 637 0040 93071000 		li	a5,1
 638 0044 17070000 		sw	a5,.LANCHOR0,a4
 638      2320F700 
  39:test/../test/ConsumerProducer_CPP_API_test.hpp **** 
 639              		.loc 1 39 13 is_stmt 1
 640 004c 83B70401 		ld	a5,16(s1)
  39:test/../test/ConsumerProducer_CPP_API_test.hpp **** 
 641              		.loc 1 39 28 is_stmt 0
 642 0050 93051002 		li	a1,33
 643              	.LVL36:
 644 0054 03B58700 		ld	a0,8(a5)
 645              	.LVL37:
 646 0058 97000000 		call	_ZN9BufferCPP3putEi@plt
GAS LISTING /tmp/ccxRZoB4.s 			page 16


 646      E7800000 
 647              	.LVL38:
  41:test/../test/ConsumerProducer_CPP_API_test.hpp ****         }
 648              		.loc 1 41 13 is_stmt 1
 649 0060 83B70401 		ld	a5,16(s1)
  41:test/../test/ConsumerProducer_CPP_API_test.hpp ****         }
 650              		.loc 1 41 28 is_stmt 0
 651 0064 03B50701 		ld	a0,16(a5)
 652 0068 97000000 		call	_ZN9Semaphore6signalEv@plt
 652      E7800000 
 653              	.LVL39:
  42:test/../test/ConsumerProducer_CPP_API_test.hpp ****     };
 654              		.loc 1 42 9
 655 0070 83308101 		ld	ra,24(sp)
 656              		.cfi_restore 1
 657 0074 03340101 		ld	s0,16(sp)
 658              		.cfi_restore 8
 659              		.cfi_def_cfa 2, 32
 660 0078 83348100 		ld	s1,8(sp)
 661              		.cfi_restore 9
 662              	.LVL40:
 663 007c 13010102 		addi	sp,sp,32
 664              		.cfi_def_cfa_offset 0
 665 0080 67800000 		jr	ra
 666              		.cfi_endproc
 667              	.LFE97:
 669              		.section	.text._ZN19ConsumerProducerCPP8Consumer3runEv,"axG",@progbits,_ZN19ConsumerProducerCPP8Co
 670              		.align	2
 671              		.weak	_ZN19ConsumerProducerCPP8Consumer3runEv
 673              	_ZN19ConsumerProducerCPP8Consumer3runEv:
 674              	.LFB105:
  65:test/../test/ConsumerProducer_CPP_API_test.hpp ****         thread_data *td;
  66:test/../test/ConsumerProducer_CPP_API_test.hpp ****     public:
  67:test/../test/ConsumerProducer_CPP_API_test.hpp ****         Consumer(thread_data *_td) : Thread(), td(_td) {}
  68:test/../test/ConsumerProducer_CPP_API_test.hpp **** 
  69:test/../test/ConsumerProducer_CPP_API_test.hpp ****         void run() override {
 675              		.loc 1 69 14 is_stmt 1
 676              		.cfi_startproc
 677              	.LVL41:
 678 0000 130101FD 		addi	sp,sp,-48
 679              		.cfi_def_cfa_offset 48
 680 0004 23341102 		sd	ra,40(sp)
 681 0008 23308102 		sd	s0,32(sp)
 682 000c 233C9100 		sd	s1,24(sp)
 683 0010 23382101 		sd	s2,16(sp)
 684 0014 23343101 		sd	s3,8(sp)
 685              		.cfi_offset 1, -8
 686              		.cfi_offset 8, -16
 687              		.cfi_offset 9, -24
 688              		.cfi_offset 18, -32
 689              		.cfi_offset 19, -40
 690 0018 13040103 		addi	s0,sp,48
 691              		.cfi_def_cfa 8, 0
 692 001c 13090500 		mv	s2,a0
  70:test/../test/ConsumerProducer_CPP_API_test.hpp ****             int i = 0;
 693              		.loc 1 70 13
 694              	.LVL42:
GAS LISTING /tmp/ccxRZoB4.s 			page 17


 695              		.loc 1 70 17 is_stmt 0
 696 0020 93090000 		li	s3,0
 697 0024 6F000001 		j	.L46
 698              	.LVL43:
 699              	.L51:
 700              	.LBB193:
  71:test/../test/ConsumerProducer_CPP_API_test.hpp ****             while (!threadEnd) {
  72:test/../test/ConsumerProducer_CPP_API_test.hpp ****                 int key = td->buffer->get();
  73:test/../test/ConsumerProducer_CPP_API_test.hpp ****                 i++;
  74:test/../test/ConsumerProducer_CPP_API_test.hpp **** 
  75:test/../test/ConsumerProducer_CPP_API_test.hpp ****                 Console::putc(key);
  76:test/../test/ConsumerProducer_CPP_API_test.hpp **** 
  77:test/../test/ConsumerProducer_CPP_API_test.hpp ****                 if (i % 80 == 0) {
  78:test/../test/ConsumerProducer_CPP_API_test.hpp ****                     Console::putc('\n');
 701              		.loc 1 78 21 is_stmt 1
 702              		.loc 1 78 34 is_stmt 0
 703 0028 1305A000 		li	a0,10
 704 002c 97000000 		call	_ZN7Console4putcEc@plt
 704      E7800000 
 705              	.LVL44:
 706              	.L46:
 707              	.LBE193:
  71:test/../test/ConsumerProducer_CPP_API_test.hpp ****             while (!threadEnd) {
 708              		.loc 1 71 13 is_stmt 1
  71:test/../test/ConsumerProducer_CPP_API_test.hpp ****             while (!threadEnd) {
 709              		.loc 1 71 20
 710 0034 97070000 		lw	a5,.LANCHOR0
 710      83A70700 
 711 003c 639A0704 		bnez	a5,.L47
 712              	.LBB194:
  72:test/../test/ConsumerProducer_CPP_API_test.hpp ****                 i++;
 713              		.loc 1 72 17
  72:test/../test/ConsumerProducer_CPP_API_test.hpp ****                 i++;
 714              		.loc 1 72 27 is_stmt 0
 715 0040 83370901 		ld	a5,16(s2)
  72:test/../test/ConsumerProducer_CPP_API_test.hpp ****                 i++;
 716              		.loc 1 72 42
 717 0044 03B58700 		ld	a0,8(a5)
 718 0048 97000000 		call	_ZN9BufferCPP3getEv@plt
 718      E7800000 
 719              	.LVL45:
  73:test/../test/ConsumerProducer_CPP_API_test.hpp **** 
 720              		.loc 1 73 17 is_stmt 1
  73:test/../test/ConsumerProducer_CPP_API_test.hpp **** 
 721              		.loc 1 73 18 is_stmt 0
 722 0050 9B841900 		addiw	s1,s3,1
 723 0054 9B890400 		sext.w	s3,s1
 724              	.LVL46:
  75:test/../test/ConsumerProducer_CPP_API_test.hpp **** 
 725              		.loc 1 75 17 is_stmt 1
  75:test/../test/ConsumerProducer_CPP_API_test.hpp **** 
 726              		.loc 1 75 30 is_stmt 0
 727 0058 1375F50F 		andi	a0,a0,0xff
 728              	.LVL47:
 729 005c 97000000 		call	_ZN7Console4putcEc@plt
 729      E7800000 
 730              	.LVL48:
GAS LISTING /tmp/ccxRZoB4.s 			page 18


  77:test/../test/ConsumerProducer_CPP_API_test.hpp ****                     Console::putc('\n');
 731              		.loc 1 77 17 is_stmt 1
  77:test/../test/ConsumerProducer_CPP_API_test.hpp ****                     Console::putc('\n');
 732              		.loc 1 77 23 is_stmt 0
 733 0064 93070005 		li	a5,80
 734 0068 BBE4F402 		remw	s1,s1,a5
 735              	.LVL49:
  77:test/../test/ConsumerProducer_CPP_API_test.hpp ****                     Console::putc('\n');
 736              		.loc 1 77 17
 737 006c E39404FC 		bnez	s1,.L46
 738 0070 6FF09FFB 		j	.L51
 739              	.L52:
 740              	.LBE194:
 741              	.LBB195:
  79:test/../test/ConsumerProducer_CPP_API_test.hpp ****                 }
  80:test/../test/ConsumerProducer_CPP_API_test.hpp ****             }
  81:test/../test/ConsumerProducer_CPP_API_test.hpp **** 
  82:test/../test/ConsumerProducer_CPP_API_test.hpp ****             while (td->buffer->getCnt() > 0) {
  83:test/../test/ConsumerProducer_CPP_API_test.hpp ****                 int key = td->buffer->get();
 742              		.loc 1 83 17 is_stmt 1
 743              		.loc 1 83 27 is_stmt 0
 744 0074 83370901 		ld	a5,16(s2)
 745              		.loc 1 83 42
 746 0078 03B58700 		ld	a0,8(a5)
 747 007c 97000000 		call	_ZN9BufferCPP3getEv@plt
 747      E7800000 
 748              	.LVL50:
  84:test/../test/ConsumerProducer_CPP_API_test.hpp ****                 Console::putc(key);
 749              		.loc 1 84 17 is_stmt 1
 750              		.loc 1 84 30 is_stmt 0
 751 0084 1375F50F 		andi	a0,a0,0xff
 752              	.LVL51:
 753 0088 97000000 		call	_ZN7Console4putcEc@plt
 753      E7800000 
 754              	.LVL52:
 755              	.L47:
 756              	.LBE195:
  82:test/../test/ConsumerProducer_CPP_API_test.hpp ****                 int key = td->buffer->get();
 757              		.loc 1 82 13 is_stmt 1
  82:test/../test/ConsumerProducer_CPP_API_test.hpp ****                 int key = td->buffer->get();
 758              		.loc 1 82 41
  82:test/../test/ConsumerProducer_CPP_API_test.hpp ****                 int key = td->buffer->get();
 759              		.loc 1 82 20 is_stmt 0
 760 0090 83370901 		ld	a5,16(s2)
  82:test/../test/ConsumerProducer_CPP_API_test.hpp ****                 int key = td->buffer->get();
 761              		.loc 1 82 38
 762 0094 03B58700 		ld	a0,8(a5)
 763 0098 97000000 		call	_ZN9BufferCPP6getCntEv@plt
 763      E7800000 
 764              	.LVL53:
  82:test/../test/ConsumerProducer_CPP_API_test.hpp ****                 int key = td->buffer->get();
 765              		.loc 1 82 41
 766 00a0 E34AA0FC 		bgtz	a0,.L52
  85:test/../test/ConsumerProducer_CPP_API_test.hpp ****             }
  86:test/../test/ConsumerProducer_CPP_API_test.hpp **** 
  87:test/../test/ConsumerProducer_CPP_API_test.hpp ****             td->sem->signal();
 767              		.loc 1 87 13 is_stmt 1
GAS LISTING /tmp/ccxRZoB4.s 			page 19


 768 00a4 83370901 		ld	a5,16(s2)
 769              		.loc 1 87 28 is_stmt 0
 770 00a8 03B50701 		ld	a0,16(a5)
 771 00ac 97000000 		call	_ZN9Semaphore6signalEv@plt
 771      E7800000 
 772              	.LVL54:
  88:test/../test/ConsumerProducer_CPP_API_test.hpp ****         }
 773              		.loc 1 88 9
 774 00b4 83308102 		ld	ra,40(sp)
 775              		.cfi_restore 1
 776 00b8 03340102 		ld	s0,32(sp)
 777              		.cfi_restore 8
 778              		.cfi_def_cfa 2, 48
 779 00bc 83348101 		ld	s1,24(sp)
 780              		.cfi_restore 9
 781 00c0 03390101 		ld	s2,16(sp)
 782              		.cfi_restore 18
 783              	.LVL55:
 784 00c4 83398100 		ld	s3,8(sp)
 785              		.cfi_restore 19
 786              	.LVL56:
 787 00c8 13010103 		addi	sp,sp,48
 788              		.cfi_def_cfa_offset 0
 789 00cc 67800000 		jr	ra
 790              		.cfi_endproc
 791              	.LFE105:
 793              		.section	.rodata.str1.8,"aMS",@progbits,1
 794              		.align	3
 795              	.LC1:
 796 0000 48656C6C 		.string	"Hello "
 796      6F2000
 797 0007 00       		.align	3
 798              	.LC2:
 799 0008 20210A00 		.string	" !\n"
 800              		.text
 801              		.align	2
 802              		.globl	_Z9sleepyRunPv
 804              	_Z9sleepyRunPv:
 805              	.LFB92:
 806              		.file 4 "test/../test/ThreadSleep_C_API_test.hpp"
   1:test/../test/ThreadSleep_C_API_test.hpp **** //
   2:test/../test/ThreadSleep_C_API_test.hpp **** // Created by os on 4/17/22.
   3:test/../test/ThreadSleep_C_API_test.hpp **** //
   4:test/../test/ThreadSleep_C_API_test.hpp **** 
   5:test/../test/ThreadSleep_C_API_test.hpp **** #ifndef XV6_THREADSLEEP_C_API_TEST_HPP
   6:test/../test/ThreadSleep_C_API_test.hpp **** #define XV6_THREADSLEEP_C_API_TEST_HPP
   7:test/../test/ThreadSleep_C_API_test.hpp **** 
   8:test/../test/ThreadSleep_C_API_test.hpp **** #include "../h/syscall_c.h"
   9:test/../test/ThreadSleep_C_API_test.hpp **** 
  10:test/../test/ThreadSleep_C_API_test.hpp **** #include "../h/printing.hpp"
  11:test/../test/ThreadSleep_C_API_test.hpp **** 
  12:test/../test/ThreadSleep_C_API_test.hpp **** bool finished[9];
  13:test/../test/ThreadSleep_C_API_test.hpp **** 
  14:test/../test/ThreadSleep_C_API_test.hpp **** void sleepyRun(void *arg) {
 807              		.loc 4 14 27 is_stmt 1
 808              		.cfi_startproc
 809              	.LVL57:
GAS LISTING /tmp/ccxRZoB4.s 			page 20


 810 0000 130101FE 		addi	sp,sp,-32
 811              		.cfi_def_cfa_offset 32
 812 0004 233C1100 		sd	ra,24(sp)
 813 0008 23388100 		sd	s0,16(sp)
 814 000c 23349100 		sd	s1,8(sp)
 815 0010 23302101 		sd	s2,0(sp)
 816              		.cfi_offset 1, -8
 817              		.cfi_offset 8, -16
 818              		.cfi_offset 9, -24
 819              		.cfi_offset 18, -32
 820 0014 13040102 		addi	s0,sp,32
 821              		.cfi_def_cfa 8, 0
  15:test/../test/ThreadSleep_C_API_test.hpp ****     time_t sleep_time = *((time_t *) arg);
 822              		.loc 4 15 5
 823              		.loc 4 15 12 is_stmt 0
 824 0018 03390500 		ld	s2,0(a0)
 825              	.LVL58:
  16:test/../test/ThreadSleep_C_API_test.hpp ****     int i = 6;
 826              		.loc 4 16 5 is_stmt 1
 827              		.loc 4 16 9 is_stmt 0
 828 001c 93046000 		li	s1,6
 829              	.LVL59:
 830              	.L55:
  17:test/../test/ThreadSleep_C_API_test.hpp ****     while (--i > 0) {
 831              		.loc 4 17 5 is_stmt 1
 832              		.loc 4 17 16
 833 0020 9B84F4FF 		addiw	s1,s1,-1
 834              	.LVL60:
 835 0024 63549004 		blez	s1,.L54
  18:test/../test/ThreadSleep_C_API_test.hpp **** 
  19:test/../test/ThreadSleep_C_API_test.hpp ****         printString("Hello ");
 836              		.loc 4 19 9
 837              		.loc 4 19 20 is_stmt 0
 838 0028 17050000 		lla	a0,.LC1
 838      13050500 
 839 0030 97000000 		call	_Z11printStringPKc@plt
 839      E7800000 
 840              	.LVL61:
  20:test/../test/ThreadSleep_C_API_test.hpp ****         printInt(sleep_time);
 841              		.loc 4 20 9 is_stmt 1
 842              		.loc 4 20 17 is_stmt 0
 843 0038 13060000 		li	a2,0
 844 003c 9305A000 		li	a1,10
 845 0040 1B050900 		sext.w	a0,s2
 846 0044 97000000 		call	_Z8printIntiii@plt
 846      E7800000 
 847              	.LVL62:
  21:test/../test/ThreadSleep_C_API_test.hpp ****         printString(" !\n");
 848              		.loc 4 21 9 is_stmt 1
 849              		.loc 4 21 20 is_stmt 0
 850 004c 17050000 		lla	a0,.LC2
 850      13050500 
 851 0054 97000000 		call	_Z11printStringPKc@plt
 851      E7800000 
 852              	.LVL63:
  22:test/../test/ThreadSleep_C_API_test.hpp ****         time_sleep(sleep_time);
 853              		.loc 4 22 9 is_stmt 1
GAS LISTING /tmp/ccxRZoB4.s 			page 21


 854              		.loc 4 22 19 is_stmt 0
 855 005c 13050900 		mv	a0,s2
 856 0060 97000000 		call	_Z10time_sleepm@plt
 856      E7800000 
 857              	.LVL64:
  17:test/../test/ThreadSleep_C_API_test.hpp **** 
 858              		.loc 4 17 5
 859 0068 6FF09FFB 		j	.L55
 860              	.L54:
  23:test/../test/ThreadSleep_C_API_test.hpp ****     }
  24:test/../test/ThreadSleep_C_API_test.hpp ****     finished[sleep_time/10-1] = true;
 861              		.loc 4 24 5 is_stmt 1
 862              		.loc 4 24 24 is_stmt 0
 863 006c 9307A000 		li	a5,10
 864 0070 3359F902 		divu	s2,s2,a5
 865              	.LVL65:
 866              		.loc 4 24 27
 867 0074 1309F9FF 		addi	s2,s2,-1
 868              		.loc 4 24 31
 869 0078 97070000 		lla	a5,.LANCHOR0
 869      93870700 
 870 0080 33892701 		add	s2,a5,s2
 871 0084 93071000 		li	a5,1
 872 0088 2304F900 		sb	a5,8(s2)
  25:test/../test/ThreadSleep_C_API_test.hpp **** }
 873              		.loc 4 25 1
 874 008c 83308101 		ld	ra,24(sp)
 875              		.cfi_restore 1
 876 0090 03340101 		ld	s0,16(sp)
 877              		.cfi_restore 8
 878              		.cfi_def_cfa 2, 32
 879 0094 83348100 		ld	s1,8(sp)
 880              		.cfi_restore 9
 881 0098 03390100 		ld	s2,0(sp)
 882              		.cfi_restore 18
 883 009c 13010102 		addi	sp,sp,32
 884              		.cfi_def_cfa_offset 0
 885 00a0 67800000 		jr	ra
 886              		.cfi_endproc
 887              	.LFE92:
 889              		.section	.text._ZN19ConsumerProducerCPP8Producer3runEv,"axG",@progbits,_ZN19ConsumerProducerCPP8Pr
 890              		.align	2
 891              		.weak	_ZN19ConsumerProducerCPP8Producer3runEv
 893              	_ZN19ConsumerProducerCPP8Producer3runEv:
 894              	.LFB101:
  50:test/../test/ConsumerProducer_CPP_API_test.hpp ****             int i = 0;
 895              		.loc 1 50 14 is_stmt 1
 896              		.cfi_startproc
 897              	.LVL66:
 898 0000 130101FE 		addi	sp,sp,-32
 899              		.cfi_def_cfa_offset 32
 900 0004 233C1100 		sd	ra,24(sp)
 901 0008 23388100 		sd	s0,16(sp)
 902 000c 23349100 		sd	s1,8(sp)
 903 0010 23302101 		sd	s2,0(sp)
 904              		.cfi_offset 1, -8
 905              		.cfi_offset 8, -16
GAS LISTING /tmp/ccxRZoB4.s 			page 22


 906              		.cfi_offset 9, -24
 907              		.cfi_offset 18, -32
 908 0014 13040102 		addi	s0,sp,32
 909              		.cfi_def_cfa 8, 0
 910 0018 93040500 		mv	s1,a0
  51:test/../test/ConsumerProducer_CPP_API_test.hpp ****             while (!threadEnd) {
 911              		.loc 1 51 13
 912              	.LVL67:
  51:test/../test/ConsumerProducer_CPP_API_test.hpp ****             while (!threadEnd) {
 913              		.loc 1 51 17 is_stmt 0
 914 001c 13090000 		li	s2,0
 915              	.LVL68:
 916              	.L59:
  52:test/../test/ConsumerProducer_CPP_API_test.hpp ****                 td->buffer->put(td->id + '0');
 917              		.loc 1 52 13 is_stmt 1
  52:test/../test/ConsumerProducer_CPP_API_test.hpp ****                 td->buffer->put(td->id + '0');
 918              		.loc 1 52 20
 919 0020 97070000 		lw	a5,.LANCHOR0
 919      83A70700 
 920 0028 63920704 		bnez	a5,.L58
  53:test/../test/ConsumerProducer_CPP_API_test.hpp ****                 i++;
 921              		.loc 1 53 17
 922 002c 83B70401 		ld	a5,16(s1)
  53:test/../test/ConsumerProducer_CPP_API_test.hpp ****                 i++;
 923              		.loc 1 53 37 is_stmt 0
 924 0030 83A50700 		lw	a1,0(a5)
  53:test/../test/ConsumerProducer_CPP_API_test.hpp ****                 i++;
 925              		.loc 1 53 32
 926 0034 9B850503 		addiw	a1,a1,48
 927 0038 03B58700 		ld	a0,8(a5)
 928 003c 97000000 		call	_ZN9BufferCPP3putEi@plt
 928      E7800000 
 929              	.LVL69:
  54:test/../test/ConsumerProducer_CPP_API_test.hpp ****                 //Thread::sleep(0);
 930              		.loc 1 54 17 is_stmt 1
  54:test/../test/ConsumerProducer_CPP_API_test.hpp ****                 //Thread::sleep(0);
 931              		.loc 1 54 18 is_stmt 0
 932 0044 1B071900 		addiw	a4,s2,1
 933 0048 1B090700 		sext.w	s2,a4
 934              	.LVL70:
  57:test/../test/ConsumerProducer_CPP_API_test.hpp ****             }
 935              		.loc 1 57 17 is_stmt 1
  57:test/../test/ConsumerProducer_CPP_API_test.hpp ****             }
 936              		.loc 1 57 34 is_stmt 0
 937 004c 83B70401 		ld	a5,16(s1)
  57:test/../test/ConsumerProducer_CPP_API_test.hpp ****             }
 938              		.loc 1 57 38
 939 0050 83A70700 		lw	a5,0(a5)
  57:test/../test/ConsumerProducer_CPP_API_test.hpp ****             }
 940              		.loc 1 57 33
 941 0054 BB87E700 		addw	a5,a5,a4
  57:test/../test/ConsumerProducer_CPP_API_test.hpp ****             }
 942              		.loc 1 57 30
 943 0058 13055000 		li	a0,5
 944 005c 3BE5A702 		remw	a0,a5,a0
 945 0060 97000000 		call	_ZN6Thread5sleepEm@plt
 945      E7800000 
GAS LISTING /tmp/ccxRZoB4.s 			page 23


 946              	.LVL71:
  52:test/../test/ConsumerProducer_CPP_API_test.hpp ****                 td->buffer->put(td->id + '0');
 947              		.loc 1 52 13
 948 0068 6FF09FFB 		j	.L59
 949              	.L58:
  60:test/../test/ConsumerProducer_CPP_API_test.hpp ****         }
 950              		.loc 1 60 13 is_stmt 1
 951 006c 83B70401 		ld	a5,16(s1)
  60:test/../test/ConsumerProducer_CPP_API_test.hpp ****         }
 952              		.loc 1 60 28 is_stmt 0
 953 0070 03B50701 		ld	a0,16(a5)
 954 0074 97000000 		call	_ZN9Semaphore6signalEv@plt
 954      E7800000 
 955              	.LVL72:
  61:test/../test/ConsumerProducer_CPP_API_test.hpp ****     };
 956              		.loc 1 61 9
 957 007c 83308101 		ld	ra,24(sp)
 958              		.cfi_restore 1
 959 0080 03340101 		ld	s0,16(sp)
 960              		.cfi_restore 8
 961              		.cfi_def_cfa 2, 32
 962 0084 83348100 		ld	s1,8(sp)
 963              		.cfi_restore 9
 964              	.LVL73:
 965 0088 03390100 		ld	s2,0(sp)
 966              		.cfi_restore 18
 967              	.LVL74:
 968 008c 13010102 		addi	sp,sp,32
 969              		.cfi_def_cfa_offset 0
 970 0090 67800000 		jr	ra
 971              		.cfi_endproc
 972              	.LFE101:
 974              		.text
 975              		.align	2
 976              		.globl	_Z9fibonaccim
 978              	_Z9fibonaccim:
 979              	.LFB54:
  13:test/../test/Threads_CPP_API_test.hpp ****     if (n == 0 || n == 1) { return n; }
 980              		.loc 3 13 28 is_stmt 1
 981              		.cfi_startproc
 982              	.LVL75:
 983 00a4 130101FE 		addi	sp,sp,-32
 984              		.cfi_def_cfa_offset 32
 985 00a8 233C1100 		sd	ra,24(sp)
 986 00ac 23388100 		sd	s0,16(sp)
 987 00b0 23349100 		sd	s1,8(sp)
 988 00b4 23302101 		sd	s2,0(sp)
 989              		.cfi_offset 1, -8
 990              		.cfi_offset 8, -16
 991              		.cfi_offset 9, -24
 992              		.cfi_offset 18, -32
 993 00b8 13040102 		addi	s0,sp,32
 994              		.cfi_def_cfa 8, 0
 995 00bc 93040500 		mv	s1,a0
  14:test/../test/Threads_CPP_API_test.hpp ****     if (n % 10 == 0) { thread_dispatch(); }
 996              		.loc 3 14 5
 997 00c0 93071000 		li	a5,1
GAS LISTING /tmp/ccxRZoB4.s 			page 24


 998 00c4 63F8A702 		bleu	a0,a5,.L61
  15:test/../test/Threads_CPP_API_test.hpp ****     return fibonacci(n - 1) + fibonacci(n - 2);
 999              		.loc 3 15 5
  15:test/../test/Threads_CPP_API_test.hpp ****     return fibonacci(n - 1) + fibonacci(n - 2);
 1000              		.loc 3 15 11 is_stmt 0
 1001 00c8 9307A000 		li	a5,10
 1002 00cc B377F502 		remu	a5,a0,a5
  15:test/../test/Threads_CPP_API_test.hpp ****     return fibonacci(n - 1) + fibonacci(n - 2);
 1003              		.loc 3 15 5
 1004 00d0 638E0702 		beqz	a5,.L66
 1005              	.LVL76:
 1006              	.L63:
  16:test/../test/Threads_CPP_API_test.hpp **** }
 1007              		.loc 3 16 5 is_stmt 1
  16:test/../test/Threads_CPP_API_test.hpp **** }
 1008              		.loc 3 16 21 is_stmt 0
 1009 00d4 1385F4FF 		addi	a0,s1,-1
 1010 00d8 97000000 		call	_Z9fibonaccim
 1010      E7800000 
 1011              	.LVL77:
 1012 00e0 13090500 		mv	s2,a0
  16:test/../test/Threads_CPP_API_test.hpp **** }
 1013              		.loc 3 16 40
 1014 00e4 1385E4FF 		addi	a0,s1,-2
 1015 00e8 97000000 		call	_Z9fibonaccim
 1015      E7800000 
 1016              	.LVL78:
  16:test/../test/Threads_CPP_API_test.hpp **** }
 1017              		.loc 3 16 46
 1018 00f0 3305A900 		add	a0,s2,a0
 1019              	.L61:
  17:test/../test/Threads_CPP_API_test.hpp **** 
 1020              		.loc 3 17 1
 1021 00f4 83308101 		ld	ra,24(sp)
 1022              		.cfi_remember_state
 1023              		.cfi_restore 1
 1024 00f8 03340101 		ld	s0,16(sp)
 1025              		.cfi_restore 8
 1026              		.cfi_def_cfa 2, 32
 1027 00fc 83348100 		ld	s1,8(sp)
 1028              		.cfi_restore 9
 1029              	.LVL79:
 1030 0100 03390100 		ld	s2,0(sp)
 1031              		.cfi_restore 18
 1032 0104 13010102 		addi	sp,sp,32
 1033              		.cfi_def_cfa_offset 0
 1034 0108 67800000 		jr	ra
 1035              	.LVL80:
 1036              	.L66:
 1037              		.cfi_restore_state
  15:test/../test/Threads_CPP_API_test.hpp ****     return fibonacci(n - 1) + fibonacci(n - 2);
 1038              		.loc 3 15 24 is_stmt 1 discriminator 1
  15:test/../test/Threads_CPP_API_test.hpp ****     return fibonacci(n - 1) + fibonacci(n - 2);
 1039              		.loc 3 15 39 is_stmt 0 discriminator 1
 1040 010c 97000000 		call	_Z15thread_dispatchv@plt
 1040      E7800000 
 1041              	.LVL81:
GAS LISTING /tmp/ccxRZoB4.s 			page 25


 1042 0114 6FF01FFC 		j	.L63
 1043              		.cfi_endproc
 1044              	.LFE54:
 1046              		.section	.rodata.str1.8
 1047 000c 00000000 		.align	3
 1048              	.LC3:
 1049 0010 413A2069 		.string	"A: i="
 1049      3D00
 1050 0016 0000     		.align	3
 1051              	.LC4:
 1052 0018 0A00     		.string	"\n"
 1053 001a 00000000 		.align	3
 1053      0000
 1054              	.LC5:
 1055 0020 41206669 		.string	"A finished!\n"
 1055      6E697368 
 1055      6564210A 
 1055      00
 1056              		.text
 1057              		.align	2
 1058              		.globl	_ZN7WorkerA11workerBodyAEPv
 1060              	_ZN7WorkerA11workerBodyAEPv:
 1061              	.LFB71:
  50:test/../test/Threads_CPP_API_test.hpp ****     void workerBodyD(void* arg);
  51:test/../test/Threads_CPP_API_test.hpp **** public:
  52:test/../test/Threads_CPP_API_test.hpp ****     WorkerD():Thread() {}
  53:test/../test/Threads_CPP_API_test.hpp **** 
  54:test/../test/Threads_CPP_API_test.hpp ****     void run() override {
  55:test/../test/Threads_CPP_API_test.hpp ****         workerBodyD(nullptr);
  56:test/../test/Threads_CPP_API_test.hpp ****     }
  57:test/../test/Threads_CPP_API_test.hpp **** };
  58:test/../test/Threads_CPP_API_test.hpp **** 
  59:test/../test/Threads_CPP_API_test.hpp **** void WorkerA::workerBodyA(void *arg) {
 1062              		.loc 3 59 38 is_stmt 1
 1063              		.cfi_startproc
 1064              	.LVL82:
 1065 0118 130101FE 		addi	sp,sp,-32
 1066              		.cfi_def_cfa_offset 32
 1067 011c 233C1100 		sd	ra,24(sp)
 1068 0120 23388100 		sd	s0,16(sp)
 1069 0124 23349100 		sd	s1,8(sp)
 1070 0128 23302101 		sd	s2,0(sp)
 1071              		.cfi_offset 1, -8
 1072              		.cfi_offset 8, -16
 1073              		.cfi_offset 9, -24
 1074              		.cfi_offset 18, -32
 1075 012c 13040102 		addi	s0,sp,32
 1076              		.cfi_def_cfa 8, 0
  60:test/../test/Threads_CPP_API_test.hpp ****     for (uint64 i = 0; i < 10; i++) {
 1077              		.loc 3 60 5
 1078              	.LVL83:
 1079              	.LBB196:
 1080              		.loc 3 60 17 is_stmt 0
 1081 0130 13090000 		li	s2,0
 1082 0134 6F008003 		j	.L73
 1083              	.LVL84:
 1084              	.L70:
GAS LISTING /tmp/ccxRZoB4.s 			page 26


 1085              	.LBB197:
 1086              	.LBB198:
 1087              	.LBB199:
  61:test/../test/Threads_CPP_API_test.hpp ****         printString("A: i="); printInt(i); printString("\n");
  62:test/../test/Threads_CPP_API_test.hpp ****         for (uint64 j = 0; j < 10000; j++) {
  63:test/../test/Threads_CPP_API_test.hpp ****             for (uint64 k = 0; k < 30000; k++) { /* busy wait */ }
  64:test/../test/Threads_CPP_API_test.hpp ****             thread_dispatch();
 1088              		.loc 3 64 13 is_stmt 1 discriminator 2
 1089              		.loc 3 64 28 is_stmt 0 discriminator 2
 1090 0138 97000000 		call	_Z15thread_dispatchv@plt
 1090      E7800000 
 1091              	.LVL85:
 1092              	.LBE199:
  62:test/../test/Threads_CPP_API_test.hpp ****             for (uint64 k = 0; k < 30000; k++) { /* busy wait */ }
 1093              		.loc 3 62 9 is_stmt 1 discriminator 2
 1094 0140 93841400 		addi	s1,s1,1
 1095              	.LVL86:
 1096              	.L72:
  62:test/../test/Threads_CPP_API_test.hpp ****             for (uint64 k = 0; k < 30000; k++) { /* busy wait */ }
 1097              		.loc 3 62 30 discriminator 1
 1098 0144 B7270000 		li	a5,8192
 1099 0148 9387F770 		addi	a5,a5,1807
 1100 014c 63EE9700 		bgtu	s1,a5,.L69
 1101              	.LBB201:
 1102              	.LBB200:
  63:test/../test/Threads_CPP_API_test.hpp ****             thread_dispatch();
 1103              		.loc 3 63 25 is_stmt 0
 1104 0150 13070000 		li	a4,0
 1105              	.L71:
 1106              	.LVL87:
  63:test/../test/Threads_CPP_API_test.hpp ****             thread_dispatch();
 1107              		.loc 3 63 34 is_stmt 1 discriminator 3
 1108 0154 B7770000 		li	a5,28672
 1109 0158 9387F752 		addi	a5,a5,1327
 1110 015c E3EEE7FC 		bgtu	a4,a5,.L70
  63:test/../test/Threads_CPP_API_test.hpp ****             thread_dispatch();
 1111              		.loc 3 63 13 discriminator 2
 1112 0160 13071700 		addi	a4,a4,1
 1113              	.LVL88:
 1114 0164 6FF01FFF 		j	.L71
 1115              	.LVL89:
 1116              	.L69:
 1117              	.LBE200:
 1118              	.LBE201:
 1119              	.LBE198:
 1120              	.LBE197:
  60:test/../test/Threads_CPP_API_test.hpp ****         printString("A: i="); printInt(i); printString("\n");
 1121              		.loc 3 60 5 discriminator 2
 1122 0168 13091900 		addi	s2,s2,1
 1123              	.LVL90:
 1124              	.L73:
  60:test/../test/Threads_CPP_API_test.hpp ****         printString("A: i="); printInt(i); printString("\n");
 1125              		.loc 3 60 26 discriminator 1
 1126 016c 93079000 		li	a5,9
 1127 0170 63E02705 		bgtu	s2,a5,.L68
 1128              	.LBB203:
  61:test/../test/Threads_CPP_API_test.hpp ****         for (uint64 j = 0; j < 10000; j++) {
GAS LISTING /tmp/ccxRZoB4.s 			page 27


 1129              		.loc 3 61 9
  61:test/../test/Threads_CPP_API_test.hpp ****         for (uint64 j = 0; j < 10000; j++) {
 1130              		.loc 3 61 20 is_stmt 0
 1131 0174 17050000 		lla	a0,.LC3
 1131      13050500 
 1132 017c 97000000 		call	_Z11printStringPKc@plt
 1132      E7800000 
 1133              	.LVL91:
  61:test/../test/Threads_CPP_API_test.hpp ****         for (uint64 j = 0; j < 10000; j++) {
 1134              		.loc 3 61 31 is_stmt 1
  61:test/../test/Threads_CPP_API_test.hpp ****         for (uint64 j = 0; j < 10000; j++) {
 1135              		.loc 3 61 39 is_stmt 0
 1136 0184 13060000 		li	a2,0
 1137 0188 9305A000 		li	a1,10
 1138 018c 1B050900 		sext.w	a0,s2
 1139 0190 97000000 		call	_Z8printIntiii@plt
 1139      E7800000 
 1140              	.LVL92:
  61:test/../test/Threads_CPP_API_test.hpp ****         for (uint64 j = 0; j < 10000; j++) {
 1141              		.loc 3 61 44 is_stmt 1
  61:test/../test/Threads_CPP_API_test.hpp ****         for (uint64 j = 0; j < 10000; j++) {
 1142              		.loc 3 61 55 is_stmt 0
 1143 0198 17050000 		lla	a0,.LC4
 1143      13050500 
 1144 01a0 97000000 		call	_Z11printStringPKc@plt
 1144      E7800000 
 1145              	.LVL93:
  62:test/../test/Threads_CPP_API_test.hpp ****             for (uint64 k = 0; k < 30000; k++) { /* busy wait */ }
 1146              		.loc 3 62 9 is_stmt 1
 1147              	.LBB202:
  62:test/../test/Threads_CPP_API_test.hpp ****             for (uint64 k = 0; k < 30000; k++) { /* busy wait */ }
 1148              		.loc 3 62 21 is_stmt 0
 1149 01a8 93040000 		li	s1,0
 1150 01ac 6FF09FF9 		j	.L72
 1151              	.LVL94:
 1152              	.L68:
 1153              	.LBE202:
 1154              	.LBE203:
 1155              	.LBE196:
  65:test/../test/Threads_CPP_API_test.hpp ****         }
  66:test/../test/Threads_CPP_API_test.hpp ****     }
  67:test/../test/Threads_CPP_API_test.hpp ****     printString("A finished!\n");
 1156              		.loc 3 67 5 is_stmt 1
 1157              		.loc 3 67 16 is_stmt 0
 1158 01b0 17050000 		lla	a0,.LC5
 1158      13050500 
 1159 01b8 97000000 		call	_Z11printStringPKc@plt
 1159      E7800000 
 1160              	.LVL95:
  68:test/../test/Threads_CPP_API_test.hpp ****     finishedA = true;
 1161              		.loc 3 68 5 is_stmt 1
 1162              		.loc 3 68 15 is_stmt 0
 1163 01c0 93071000 		li	a5,1
 1164 01c4 17070000 		sb	a5,.LANCHOR0+17,a4
 1164      2300F700 
  69:test/../test/Threads_CPP_API_test.hpp **** }
 1165              		.loc 3 69 1
GAS LISTING /tmp/ccxRZoB4.s 			page 28


 1166 01cc 83308101 		ld	ra,24(sp)
 1167              		.cfi_restore 1
 1168 01d0 03340101 		ld	s0,16(sp)
 1169              		.cfi_restore 8
 1170              		.cfi_def_cfa 2, 32
 1171 01d4 83348100 		ld	s1,8(sp)
 1172              		.cfi_restore 9
 1173 01d8 03390100 		ld	s2,0(sp)
 1174              		.cfi_restore 18
 1175              	.LVL96:
 1176 01dc 13010102 		addi	sp,sp,32
 1177              		.cfi_def_cfa_offset 0
 1178 01e0 67800000 		jr	ra
 1179              		.cfi_endproc
 1180              	.LFE71:
 1182              		.section	.text._ZN7WorkerA3runEv,"axG",@progbits,_ZN7WorkerA3runEv,comdat
 1183              		.align	2
 1184              		.weak	_ZN7WorkerA3runEv
 1186              	_ZN7WorkerA3runEv:
 1187              	.LFB58:
  24:test/../test/Threads_CPP_API_test.hpp ****         workerBodyA(nullptr);
 1188              		.loc 3 24 10 is_stmt 1
 1189              		.cfi_startproc
 1190              	.LVL97:
 1191 0000 130101FF 		addi	sp,sp,-16
 1192              		.cfi_def_cfa_offset 16
 1193 0004 23341100 		sd	ra,8(sp)
 1194 0008 23308100 		sd	s0,0(sp)
 1195              		.cfi_offset 1, -8
 1196              		.cfi_offset 8, -16
 1197 000c 13040101 		addi	s0,sp,16
 1198              		.cfi_def_cfa 8, 0
  25:test/../test/Threads_CPP_API_test.hpp ****     }
 1199              		.loc 3 25 9
  25:test/../test/Threads_CPP_API_test.hpp ****     }
 1200              		.loc 3 25 20 is_stmt 0
 1201 0010 93050000 		li	a1,0
 1202 0014 97000000 		call	_ZN7WorkerA11workerBodyAEPv
 1202      E7800000 
 1203              	.LVL98:
  26:test/../test/Threads_CPP_API_test.hpp **** };
 1204              		.loc 3 26 5
 1205 001c 83308100 		ld	ra,8(sp)
 1206              		.cfi_restore 1
 1207 0020 03340100 		ld	s0,0(sp)
 1208              		.cfi_restore 8
 1209              		.cfi_def_cfa 2, 16
 1210 0024 13010101 		addi	sp,sp,16
 1211              		.cfi_def_cfa_offset 0
 1212 0028 67800000 		jr	ra
 1213              		.cfi_endproc
 1214              	.LFE58:
 1216              		.section	.rodata.str1.8
 1217 002d 000000   		.align	3
 1218              	.LC6:
 1219 0030 423A2069 		.string	"B: i="
 1219      3D00
GAS LISTING /tmp/ccxRZoB4.s 			page 29


 1220 0036 0000     		.align	3
 1221              	.LC7:
 1222 0038 42206669 		.string	"B finished!\n"
 1222      6E697368 
 1222      6564210A 
 1222      00
 1223              		.text
 1224              		.align	2
 1225              		.globl	_ZN7WorkerB11workerBodyBEPv
 1227              	_ZN7WorkerB11workerBodyBEPv:
 1228              	.LFB72:
  70:test/../test/Threads_CPP_API_test.hpp **** 
  71:test/../test/Threads_CPP_API_test.hpp **** void WorkerB::workerBodyB(void *arg) {
 1229              		.loc 3 71 38 is_stmt 1
 1230              		.cfi_startproc
 1231              	.LVL99:
 1232 01e4 130101FE 		addi	sp,sp,-32
 1233              		.cfi_def_cfa_offset 32
 1234 01e8 233C1100 		sd	ra,24(sp)
 1235 01ec 23388100 		sd	s0,16(sp)
 1236 01f0 23349100 		sd	s1,8(sp)
 1237 01f4 23302101 		sd	s2,0(sp)
 1238              		.cfi_offset 1, -8
 1239              		.cfi_offset 8, -16
 1240              		.cfi_offset 9, -24
 1241              		.cfi_offset 18, -32
 1242 01f8 13040102 		addi	s0,sp,32
 1243              		.cfi_def_cfa 8, 0
  72:test/../test/Threads_CPP_API_test.hpp ****     for (uint64 i = 0; i < 16; i++) {
 1244              		.loc 3 72 5
 1245              	.LVL100:
 1246              	.LBB204:
 1247              		.loc 3 72 17 is_stmt 0
 1248 01fc 13090000 		li	s2,0
 1249 0200 6F008003 		j	.L83
 1250              	.LVL101:
 1251              	.L80:
 1252              	.LBB205:
 1253              	.LBB206:
 1254              	.LBB207:
  73:test/../test/Threads_CPP_API_test.hpp ****         printString("B: i="); printInt(i); printString("\n");
  74:test/../test/Threads_CPP_API_test.hpp ****         for (uint64 j = 0; j < 10000; j++) {
  75:test/../test/Threads_CPP_API_test.hpp ****             for (uint64 k = 0; k < 30000; k++) { /* busy wait */ }
  76:test/../test/Threads_CPP_API_test.hpp ****             thread_dispatch();
 1255              		.loc 3 76 13 is_stmt 1 discriminator 2
 1256              		.loc 3 76 28 is_stmt 0 discriminator 2
 1257 0204 97000000 		call	_Z15thread_dispatchv@plt
 1257      E7800000 
 1258              	.LVL102:
 1259              	.LBE207:
  74:test/../test/Threads_CPP_API_test.hpp ****             for (uint64 k = 0; k < 30000; k++) { /* busy wait */ }
 1260              		.loc 3 74 9 is_stmt 1 discriminator 2
 1261 020c 93841400 		addi	s1,s1,1
 1262              	.LVL103:
 1263              	.L82:
  74:test/../test/Threads_CPP_API_test.hpp ****             for (uint64 k = 0; k < 30000; k++) { /* busy wait */ }
 1264              		.loc 3 74 30 discriminator 1
GAS LISTING /tmp/ccxRZoB4.s 			page 30


 1265 0210 B7270000 		li	a5,8192
 1266 0214 9387F770 		addi	a5,a5,1807
 1267 0218 63EE9700 		bgtu	s1,a5,.L79
 1268              	.LBB209:
 1269              	.LBB208:
  75:test/../test/Threads_CPP_API_test.hpp ****             thread_dispatch();
 1270              		.loc 3 75 25 is_stmt 0
 1271 021c 13070000 		li	a4,0
 1272              	.L81:
 1273              	.LVL104:
  75:test/../test/Threads_CPP_API_test.hpp ****             thread_dispatch();
 1274              		.loc 3 75 34 is_stmt 1 discriminator 3
 1275 0220 B7770000 		li	a5,28672
 1276 0224 9387F752 		addi	a5,a5,1327
 1277 0228 E3EEE7FC 		bgtu	a4,a5,.L80
  75:test/../test/Threads_CPP_API_test.hpp ****             thread_dispatch();
 1278              		.loc 3 75 13 discriminator 2
 1279 022c 13071700 		addi	a4,a4,1
 1280              	.LVL105:
 1281 0230 6FF01FFF 		j	.L81
 1282              	.LVL106:
 1283              	.L79:
 1284              	.LBE208:
 1285              	.LBE209:
 1286              	.LBE206:
 1287              	.LBE205:
  72:test/../test/Threads_CPP_API_test.hpp ****         printString("B: i="); printInt(i); printString("\n");
 1288              		.loc 3 72 5 discriminator 2
 1289 0234 13091900 		addi	s2,s2,1
 1290              	.LVL107:
 1291              	.L83:
  72:test/../test/Threads_CPP_API_test.hpp ****         printString("B: i="); printInt(i); printString("\n");
 1292              		.loc 3 72 26 discriminator 1
 1293 0238 9307F000 		li	a5,15
 1294 023c 63E02705 		bgtu	s2,a5,.L78
 1295              	.LBB211:
  73:test/../test/Threads_CPP_API_test.hpp ****         for (uint64 j = 0; j < 10000; j++) {
 1296              		.loc 3 73 9
  73:test/../test/Threads_CPP_API_test.hpp ****         for (uint64 j = 0; j < 10000; j++) {
 1297              		.loc 3 73 20 is_stmt 0
 1298 0240 17050000 		lla	a0,.LC6
 1298      13050500 
 1299 0248 97000000 		call	_Z11printStringPKc@plt
 1299      E7800000 
 1300              	.LVL108:
  73:test/../test/Threads_CPP_API_test.hpp ****         for (uint64 j = 0; j < 10000; j++) {
 1301              		.loc 3 73 31 is_stmt 1
  73:test/../test/Threads_CPP_API_test.hpp ****         for (uint64 j = 0; j < 10000; j++) {
 1302              		.loc 3 73 39 is_stmt 0
 1303 0250 13060000 		li	a2,0
 1304 0254 9305A000 		li	a1,10
 1305 0258 1B050900 		sext.w	a0,s2
 1306 025c 97000000 		call	_Z8printIntiii@plt
 1306      E7800000 
 1307              	.LVL109:
  73:test/../test/Threads_CPP_API_test.hpp ****         for (uint64 j = 0; j < 10000; j++) {
 1308              		.loc 3 73 44 is_stmt 1
GAS LISTING /tmp/ccxRZoB4.s 			page 31


  73:test/../test/Threads_CPP_API_test.hpp ****         for (uint64 j = 0; j < 10000; j++) {
 1309              		.loc 3 73 55 is_stmt 0
 1310 0264 17050000 		lla	a0,.LC4
 1310      13050500 
 1311 026c 97000000 		call	_Z11printStringPKc@plt
 1311      E7800000 
 1312              	.LVL110:
  74:test/../test/Threads_CPP_API_test.hpp ****             for (uint64 k = 0; k < 30000; k++) { /* busy wait */ }
 1313              		.loc 3 74 9 is_stmt 1
 1314              	.LBB210:
  74:test/../test/Threads_CPP_API_test.hpp ****             for (uint64 k = 0; k < 30000; k++) { /* busy wait */ }
 1315              		.loc 3 74 21 is_stmt 0
 1316 0274 93040000 		li	s1,0
 1317 0278 6FF09FF9 		j	.L82
 1318              	.LVL111:
 1319              	.L78:
 1320              	.LBE210:
 1321              	.LBE211:
 1322              	.LBE204:
  77:test/../test/Threads_CPP_API_test.hpp ****         }
  78:test/../test/Threads_CPP_API_test.hpp ****     }
  79:test/../test/Threads_CPP_API_test.hpp ****     printString("B finished!\n");
 1323              		.loc 3 79 5 is_stmt 1
 1324              		.loc 3 79 16 is_stmt 0
 1325 027c 17050000 		lla	a0,.LC7
 1325      13050500 
 1326 0284 97000000 		call	_Z11printStringPKc@plt
 1326      E7800000 
 1327              	.LVL112:
  80:test/../test/Threads_CPP_API_test.hpp ****     finishedB = true;
 1328              		.loc 3 80 5 is_stmt 1
 1329              		.loc 3 80 15 is_stmt 0
 1330 028c 93071000 		li	a5,1
 1331 0290 17070000 		sb	a5,.LANCHOR0+18,a4
 1331      2300F700 
  81:test/../test/Threads_CPP_API_test.hpp ****     thread_dispatch();
 1332              		.loc 3 81 5 is_stmt 1
 1333              		.loc 3 81 20 is_stmt 0
 1334 0298 97000000 		call	_Z15thread_dispatchv@plt
 1334      E7800000 
 1335              	.LVL113:
  82:test/../test/Threads_CPP_API_test.hpp **** }
 1336              		.loc 3 82 1
 1337 02a0 83308101 		ld	ra,24(sp)
 1338              		.cfi_restore 1
 1339 02a4 03340101 		ld	s0,16(sp)
 1340              		.cfi_restore 8
 1341              		.cfi_def_cfa 2, 32
 1342 02a8 83348100 		ld	s1,8(sp)
 1343              		.cfi_restore 9
 1344 02ac 03390100 		ld	s2,0(sp)
 1345              		.cfi_restore 18
 1346              	.LVL114:
 1347 02b0 13010102 		addi	sp,sp,32
 1348              		.cfi_def_cfa_offset 0
 1349 02b4 67800000 		jr	ra
 1350              		.cfi_endproc
GAS LISTING /tmp/ccxRZoB4.s 			page 32


 1351              	.LFE72:
 1353              		.section	.text._ZN7WorkerB3runEv,"axG",@progbits,_ZN7WorkerB3runEv,comdat
 1354              		.align	2
 1355              		.weak	_ZN7WorkerB3runEv
 1357              	_ZN7WorkerB3runEv:
 1358              	.LFB62:
  34:test/../test/Threads_CPP_API_test.hpp ****         workerBodyB(nullptr);
 1359              		.loc 3 34 10 is_stmt 1
 1360              		.cfi_startproc
 1361              	.LVL115:
 1362 0000 130101FF 		addi	sp,sp,-16
 1363              		.cfi_def_cfa_offset 16
 1364 0004 23341100 		sd	ra,8(sp)
 1365 0008 23308100 		sd	s0,0(sp)
 1366              		.cfi_offset 1, -8
 1367              		.cfi_offset 8, -16
 1368 000c 13040101 		addi	s0,sp,16
 1369              		.cfi_def_cfa 8, 0
  35:test/../test/Threads_CPP_API_test.hpp ****     }
 1370              		.loc 3 35 9
  35:test/../test/Threads_CPP_API_test.hpp ****     }
 1371              		.loc 3 35 20 is_stmt 0
 1372 0010 93050000 		li	a1,0
 1373 0014 97000000 		call	_ZN7WorkerB11workerBodyBEPv
 1373      E7800000 
 1374              	.LVL116:
  36:test/../test/Threads_CPP_API_test.hpp **** };
 1375              		.loc 3 36 5
 1376 001c 83308100 		ld	ra,8(sp)
 1377              		.cfi_restore 1
 1378 0020 03340100 		ld	s0,0(sp)
 1379              		.cfi_restore 8
 1380              		.cfi_def_cfa 2, 16
 1381 0024 13010101 		addi	sp,sp,16
 1382              		.cfi_def_cfa_offset 0
 1383 0028 67800000 		jr	ra
 1384              		.cfi_endproc
 1385              	.LFE62:
 1387              		.section	.rodata.str1.8
 1388 0045 000000   		.align	3
 1389              	.LC8:
 1390 0048 433A2069 		.string	"C: i="
 1390      3D00
 1391 004e 0000     		.align	3
 1392              	.LC9:
 1393 0050 433A2064 		.string	"C: dispatch\n"
 1393      69737061 
 1393      7463680A 
 1393      00
 1394 005d 000000   		.align	3
 1395              	.LC10:
 1396 0060 433A2074 		.string	"C: t1="
 1396      313D00
 1397 0067 00       		.align	3
 1398              	.LC11:
 1399 0068 433A2066 		.string	"C: fibonaci="
 1399      69626F6E 
GAS LISTING /tmp/ccxRZoB4.s 			page 33


 1399      6163693D 
 1399      00
 1400              		.text
 1401              		.align	2
 1402              		.globl	_ZN7WorkerC11workerBodyCEPv
 1404              	_ZN7WorkerC11workerBodyCEPv:
 1405              	.LFB73:
  83:test/../test/Threads_CPP_API_test.hpp **** 
  84:test/../test/Threads_CPP_API_test.hpp **** void WorkerC::workerBodyC(void *arg) {
 1406              		.loc 3 84 38 is_stmt 1
 1407              		.cfi_startproc
 1408              	.LVL117:
 1409 02b8 130101FE 		addi	sp,sp,-32
 1410              		.cfi_def_cfa_offset 32
 1411 02bc 233C1100 		sd	ra,24(sp)
 1412 02c0 23388100 		sd	s0,16(sp)
 1413 02c4 23349100 		sd	s1,8(sp)
 1414 02c8 23302101 		sd	s2,0(sp)
 1415              		.cfi_offset 1, -8
 1416              		.cfi_offset 8, -16
 1417              		.cfi_offset 9, -24
 1418              		.cfi_offset 18, -32
 1419 02cc 13040102 		addi	s0,sp,32
 1420              		.cfi_def_cfa 8, 0
  85:test/../test/Threads_CPP_API_test.hpp ****     uint8 i = 0;
 1421              		.loc 3 85 5
 1422              	.LVL118:
 1423              		.loc 3 85 11 is_stmt 0
 1424 02d0 93040000 		li	s1,0
 1425 02d4 6F000004 		j	.L89
 1426              	.LVL119:
 1427              	.L93:
  86:test/../test/Threads_CPP_API_test.hpp ****     for (; i < 3; i++) {
  87:test/../test/Threads_CPP_API_test.hpp ****         printString("C: i="); printInt(i); printString("\n");
 1428              		.loc 3 87 9 is_stmt 1 discriminator 1
 1429              		.loc 3 87 20 is_stmt 0 discriminator 1
 1430 02d8 17050000 		lla	a0,.LC8
 1430      13050500 
 1431 02e0 97000000 		call	_Z11printStringPKc@plt
 1431      E7800000 
 1432              	.LVL120:
 1433              		.loc 3 87 31 is_stmt 1 discriminator 1
 1434              		.loc 3 87 39 is_stmt 0 discriminator 1
 1435 02e8 13060000 		li	a2,0
 1436 02ec 9305A000 		li	a1,10
 1437 02f0 13850400 		mv	a0,s1
 1438 02f4 97000000 		call	_Z8printIntiii@plt
 1438      E7800000 
 1439              	.LVL121:
 1440              		.loc 3 87 44 is_stmt 1 discriminator 1
 1441              		.loc 3 87 55 is_stmt 0 discriminator 1
 1442 02fc 17050000 		lla	a0,.LC4
 1442      13050500 
 1443 0304 97000000 		call	_Z11printStringPKc@plt
 1443      E7800000 
 1444              	.LVL122:
  86:test/../test/Threads_CPP_API_test.hpp ****     for (; i < 3; i++) {
GAS LISTING /tmp/ccxRZoB4.s 			page 34


 1445              		.loc 3 86 5 is_stmt 1 discriminator 1
 1446 030c 9B841400 		addiw	s1,s1,1
 1447              	.LVL123:
 1448 0310 93F4F40F 		andi	s1,s1,0xff
 1449              	.LVL124:
 1450              	.L89:
  86:test/../test/Threads_CPP_API_test.hpp ****     for (; i < 3; i++) {
 1451              		.loc 3 86 5 discriminator 2
  86:test/../test/Threads_CPP_API_test.hpp ****     for (; i < 3; i++) {
 1452              		.loc 3 86 14 discriminator 2
 1453 0314 93072000 		li	a5,2
 1454 0318 E3F097FC 		bleu	s1,a5,.L93
  88:test/../test/Threads_CPP_API_test.hpp ****     }
  89:test/../test/Threads_CPP_API_test.hpp **** 
  90:test/../test/Threads_CPP_API_test.hpp ****     printString("C: dispatch\n");
 1455              		.loc 3 90 5
 1456              		.loc 3 90 16 is_stmt 0
 1457 031c 17050000 		lla	a0,.LC9
 1457      13050500 
 1458 0324 97000000 		call	_Z11printStringPKc@plt
 1458      E7800000 
 1459              	.LVL125:
  91:test/../test/Threads_CPP_API_test.hpp ****     __asm__ ("li t1, 7");
 1460              		.loc 3 91 5 is_stmt 1
 1461              		.loc 3 91 25 is_stmt 0
 1462              	#APP
 1463              	# 91 "test/../test/Threads_CPP_API_test.hpp" 1
  92              	    thread_dispatch();
 1464              		li t1, 7
 1465              	# 0 "" 2
 1466              		.loc 3 92 5 is_stmt 1
 1467              		.loc 3 92 20 is_stmt 0
 1468              	#NO_APP
 1469 0330 97000000 		call	_Z15thread_dispatchv@plt
 1469      E7800000 
 1470              	.LVL126:
  93:test/../test/Threads_CPP_API_test.hpp **** 
  94:test/../test/Threads_CPP_API_test.hpp ****     uint64 t1 = 0;
 1471              		.loc 3 94 5 is_stmt 1
  95:test/../test/Threads_CPP_API_test.hpp ****     __asm__ ("mv %[t1], t1" : [t1] "=r"(t1));
 1472              		.loc 3 95 5
 1473              		.loc 3 95 45 is_stmt 0
 1474              	#APP
 1475              	# 95 "test/../test/Threads_CPP_API_test.hpp" 1
  96              	
 1476              		mv s2, t1
 1477              	# 0 "" 2
 1478              	.LVL127:
  97:test/../test/Threads_CPP_API_test.hpp ****     printString("C: t1="); printInt(t1); printString("\n");
 1479              		.loc 3 97 5 is_stmt 1
 1480              		.loc 3 97 16 is_stmt 0
 1481              	#NO_APP
 1482 033c 17050000 		lla	a0,.LC10
 1482      13050500 
 1483 0344 97000000 		call	_Z11printStringPKc@plt
 1483      E7800000 
 1484              	.LVL128:
GAS LISTING /tmp/ccxRZoB4.s 			page 35


 1485              		.loc 3 97 28 is_stmt 1
 1486              		.loc 3 97 36 is_stmt 0
 1487 034c 13060000 		li	a2,0
 1488 0350 9305A000 		li	a1,10
 1489 0354 1B050900 		sext.w	a0,s2
 1490 0358 97000000 		call	_Z8printIntiii@plt
 1490      E7800000 
 1491              	.LVL129:
 1492              		.loc 3 97 42 is_stmt 1
 1493              		.loc 3 97 53 is_stmt 0
 1494 0360 17050000 		lla	a0,.LC4
 1494      13050500 
 1495 0368 97000000 		call	_Z11printStringPKc@plt
 1495      E7800000 
 1496              	.LVL130:
  98:test/../test/Threads_CPP_API_test.hpp **** 
  99:test/../test/Threads_CPP_API_test.hpp ****     uint64 result = fibonacci(12);
 1497              		.loc 3 99 5 is_stmt 1
 1498              		.loc 3 99 30 is_stmt 0
 1499 0370 1305C000 		li	a0,12
 1500 0374 97000000 		call	_Z9fibonaccim
 1500      E7800000 
 1501              	.LVL131:
 1502 037c 13090500 		mv	s2,a0
 1503              	.LVL132:
 100:test/../test/Threads_CPP_API_test.hpp ****     printString("C: fibonaci="); printInt(result); printString("\n");
 1504              		.loc 3 100 5 is_stmt 1
 1505              		.loc 3 100 16 is_stmt 0
 1506 0380 17050000 		lla	a0,.LC11
 1506      13050500 
 1507              	.LVL133:
 1508 0388 97000000 		call	_Z11printStringPKc@plt
 1508      E7800000 
 1509              	.LVL134:
 1510              		.loc 3 100 34 is_stmt 1
 1511              		.loc 3 100 42 is_stmt 0
 1512 0390 13060000 		li	a2,0
 1513 0394 9305A000 		li	a1,10
 1514 0398 1B050900 		sext.w	a0,s2
 1515 039c 97000000 		call	_Z8printIntiii@plt
 1515      E7800000 
 1516              	.LVL135:
 1517              		.loc 3 100 52 is_stmt 1
 1518              		.loc 3 100 63 is_stmt 0
 1519 03a4 17050000 		lla	a0,.LC4
 1519      13050500 
 1520 03ac 97000000 		call	_Z11printStringPKc@plt
 1520      E7800000 
 1521              	.LVL136:
 1522 03b4 6F000004 		j	.L91
 1523              	.L94:
 101:test/../test/Threads_CPP_API_test.hpp **** 
 102:test/../test/Threads_CPP_API_test.hpp ****     for (; i < 6; i++) {
 103:test/../test/Threads_CPP_API_test.hpp ****         printString("C: i="); printInt(i); printString("\n");
 1524              		.loc 3 103 9 is_stmt 1 discriminator 1
 1525              		.loc 3 103 20 is_stmt 0 discriminator 1
 1526 03b8 17050000 		lla	a0,.LC8
GAS LISTING /tmp/ccxRZoB4.s 			page 36


 1526      13050500 
 1527 03c0 97000000 		call	_Z11printStringPKc@plt
 1527      E7800000 
 1528              	.LVL137:
 1529              		.loc 3 103 31 is_stmt 1 discriminator 1
 1530              		.loc 3 103 39 is_stmt 0 discriminator 1
 1531 03c8 13060000 		li	a2,0
 1532 03cc 9305A000 		li	a1,10
 1533 03d0 13850400 		mv	a0,s1
 1534 03d4 97000000 		call	_Z8printIntiii@plt
 1534      E7800000 
 1535              	.LVL138:
 1536              		.loc 3 103 44 is_stmt 1 discriminator 1
 1537              		.loc 3 103 55 is_stmt 0 discriminator 1
 1538 03dc 17050000 		lla	a0,.LC4
 1538      13050500 
 1539 03e4 97000000 		call	_Z11printStringPKc@plt
 1539      E7800000 
 1540              	.LVL139:
 102:test/../test/Threads_CPP_API_test.hpp ****         printString("C: i="); printInt(i); printString("\n");
 1541              		.loc 3 102 5 is_stmt 1 discriminator 1
 1542 03ec 9B841400 		addiw	s1,s1,1
 1543              	.LVL140:
 1544 03f0 93F4F40F 		andi	s1,s1,0xff
 1545              	.LVL141:
 1546              	.L91:
 102:test/../test/Threads_CPP_API_test.hpp ****         printString("C: i="); printInt(i); printString("\n");
 1547              		.loc 3 102 5 discriminator 2
 102:test/../test/Threads_CPP_API_test.hpp ****         printString("C: i="); printInt(i); printString("\n");
 1548              		.loc 3 102 14 discriminator 2
 1549 03f4 93075000 		li	a5,5
 1550 03f8 E3F097FC 		bleu	s1,a5,.L94
 104:test/../test/Threads_CPP_API_test.hpp ****     }
 105:test/../test/Threads_CPP_API_test.hpp **** 
 106:test/../test/Threads_CPP_API_test.hpp ****     printString("A finished!\n");
 1551              		.loc 3 106 5
 1552              		.loc 3 106 16 is_stmt 0
 1553 03fc 17050000 		lla	a0,.LC5
 1553      13050500 
 1554 0404 97000000 		call	_Z11printStringPKc@plt
 1554      E7800000 
 1555              	.LVL142:
 107:test/../test/Threads_CPP_API_test.hpp ****     finishedC = true;
 1556              		.loc 3 107 5 is_stmt 1
 1557              		.loc 3 107 15 is_stmt 0
 1558 040c 93071000 		li	a5,1
 1559 0410 17070000 		sb	a5,.LANCHOR0+19,a4
 1559      2300F700 
 108:test/../test/Threads_CPP_API_test.hpp ****     thread_dispatch();
 1560              		.loc 3 108 5 is_stmt 1
 1561              		.loc 3 108 20 is_stmt 0
 1562 0418 97000000 		call	_Z15thread_dispatchv@plt
 1562      E7800000 
 1563              	.LVL143:
 109:test/../test/Threads_CPP_API_test.hpp **** }
 1564              		.loc 3 109 1
 1565 0420 83308101 		ld	ra,24(sp)
GAS LISTING /tmp/ccxRZoB4.s 			page 37


 1566              		.cfi_restore 1
 1567 0424 03340101 		ld	s0,16(sp)
 1568              		.cfi_restore 8
 1569              		.cfi_def_cfa 2, 32
 1570 0428 83348100 		ld	s1,8(sp)
 1571              		.cfi_restore 9
 1572              	.LVL144:
 1573 042c 03390100 		ld	s2,0(sp)
 1574              		.cfi_restore 18
 1575              	.LVL145:
 1576 0430 13010102 		addi	sp,sp,32
 1577              		.cfi_def_cfa_offset 0
 1578 0434 67800000 		jr	ra
 1579              		.cfi_endproc
 1580              	.LFE73:
 1582              		.section	.text._ZN7WorkerC3runEv,"axG",@progbits,_ZN7WorkerC3runEv,comdat
 1583              		.align	2
 1584              		.weak	_ZN7WorkerC3runEv
 1586              	_ZN7WorkerC3runEv:
 1587              	.LFB66:
  44:test/../test/Threads_CPP_API_test.hpp ****         workerBodyC(nullptr);
 1588              		.loc 3 44 10 is_stmt 1
 1589              		.cfi_startproc
 1590              	.LVL146:
 1591 0000 130101FF 		addi	sp,sp,-16
 1592              		.cfi_def_cfa_offset 16
 1593 0004 23341100 		sd	ra,8(sp)
 1594 0008 23308100 		sd	s0,0(sp)
 1595              		.cfi_offset 1, -8
 1596              		.cfi_offset 8, -16
 1597 000c 13040101 		addi	s0,sp,16
 1598              		.cfi_def_cfa 8, 0
  45:test/../test/Threads_CPP_API_test.hpp ****     }
 1599              		.loc 3 45 9
  45:test/../test/Threads_CPP_API_test.hpp ****     }
 1600              		.loc 3 45 20 is_stmt 0
 1601 0010 93050000 		li	a1,0
 1602 0014 97000000 		call	_ZN7WorkerC11workerBodyCEPv
 1602      E7800000 
 1603              	.LVL147:
  46:test/../test/Threads_CPP_API_test.hpp **** };
 1604              		.loc 3 46 5
 1605 001c 83308100 		ld	ra,8(sp)
 1606              		.cfi_restore 1
 1607 0020 03340100 		ld	s0,0(sp)
 1608              		.cfi_restore 8
 1609              		.cfi_def_cfa 2, 16
 1610 0024 13010101 		addi	sp,sp,16
 1611              		.cfi_def_cfa_offset 0
 1612 0028 67800000 		jr	ra
 1613              		.cfi_endproc
 1614              	.LFE66:
 1616              		.section	.rodata.str1.8
 1617 0075 000000   		.align	3
 1618              	.LC12:
 1619 0078 443A2069 		.string	"D: i="
 1619      3D00
GAS LISTING /tmp/ccxRZoB4.s 			page 38


 1620 007e 0000     		.align	3
 1621              	.LC13:
 1622 0080 443A2064 		.string	"D: dispatch\n"
 1622      69737061 
 1622      7463680A 
 1622      00
 1623 008d 000000   		.align	3
 1624              	.LC14:
 1625 0090 443A2066 		.string	"D: fibonaci="
 1625      69626F6E 
 1625      6163693D 
 1625      00
 1626 009d 000000   		.align	3
 1627              	.LC15:
 1628 00a0 44206669 		.string	"D finished!\n"
 1628      6E697368 
 1628      6564210A 
 1628      00
 1629              		.text
 1630              		.align	2
 1631              		.globl	_ZN7WorkerD11workerBodyDEPv
 1633              	_ZN7WorkerD11workerBodyDEPv:
 1634              	.LFB74:
 110:test/../test/Threads_CPP_API_test.hpp **** 
 111:test/../test/Threads_CPP_API_test.hpp **** void WorkerD::workerBodyD(void* arg) {
 1635              		.loc 3 111 38 is_stmt 1
 1636              		.cfi_startproc
 1637              	.LVL148:
 1638 0438 130101FE 		addi	sp,sp,-32
 1639              		.cfi_def_cfa_offset 32
 1640 043c 233C1100 		sd	ra,24(sp)
 1641 0440 23388100 		sd	s0,16(sp)
 1642 0444 23349100 		sd	s1,8(sp)
 1643 0448 23302101 		sd	s2,0(sp)
 1644              		.cfi_offset 1, -8
 1645              		.cfi_offset 8, -16
 1646              		.cfi_offset 9, -24
 1647              		.cfi_offset 18, -32
 1648 044c 13040102 		addi	s0,sp,32
 1649              		.cfi_def_cfa 8, 0
 112:test/../test/Threads_CPP_API_test.hpp ****     uint8 i = 10;
 1650              		.loc 3 112 5
 1651              	.LVL149:
 1652              		.loc 3 112 11 is_stmt 0
 1653 0450 9304A000 		li	s1,10
 1654 0454 6F000004 		j	.L99
 1655              	.LVL150:
 1656              	.L103:
 113:test/../test/Threads_CPP_API_test.hpp ****     for (; i < 13; i++) {
 114:test/../test/Threads_CPP_API_test.hpp ****         printString("D: i="); printInt(i); printString("\n");
 1657              		.loc 3 114 9 is_stmt 1 discriminator 1
 1658              		.loc 3 114 20 is_stmt 0 discriminator 1
 1659 0458 17050000 		lla	a0,.LC12
 1659      13050500 
 1660 0460 97000000 		call	_Z11printStringPKc@plt
 1660      E7800000 
 1661              	.LVL151:
GAS LISTING /tmp/ccxRZoB4.s 			page 39


 1662              		.loc 3 114 31 is_stmt 1 discriminator 1
 1663              		.loc 3 114 39 is_stmt 0 discriminator 1
 1664 0468 13060000 		li	a2,0
 1665 046c 9305A000 		li	a1,10
 1666 0470 13850400 		mv	a0,s1
 1667 0474 97000000 		call	_Z8printIntiii@plt
 1667      E7800000 
 1668              	.LVL152:
 1669              		.loc 3 114 44 is_stmt 1 discriminator 1
 1670              		.loc 3 114 55 is_stmt 0 discriminator 1
 1671 047c 17050000 		lla	a0,.LC4
 1671      13050500 
 1672 0484 97000000 		call	_Z11printStringPKc@plt
 1672      E7800000 
 1673              	.LVL153:
 113:test/../test/Threads_CPP_API_test.hpp ****     for (; i < 13; i++) {
 1674              		.loc 3 113 5 is_stmt 1 discriminator 1
 1675 048c 9B841400 		addiw	s1,s1,1
 1676              	.LVL154:
 1677 0490 93F4F40F 		andi	s1,s1,0xff
 1678              	.LVL155:
 1679              	.L99:
 113:test/../test/Threads_CPP_API_test.hpp ****     for (; i < 13; i++) {
 1680              		.loc 3 113 5 discriminator 2
 113:test/../test/Threads_CPP_API_test.hpp ****     for (; i < 13; i++) {
 1681              		.loc 3 113 14 discriminator 2
 1682 0494 9307C000 		li	a5,12
 1683 0498 E3F097FC 		bleu	s1,a5,.L103
 115:test/../test/Threads_CPP_API_test.hpp ****     }
 116:test/../test/Threads_CPP_API_test.hpp **** 
 117:test/../test/Threads_CPP_API_test.hpp ****     printString("D: dispatch\n");
 1684              		.loc 3 117 5
 1685              		.loc 3 117 16 is_stmt 0
 1686 049c 17050000 		lla	a0,.LC13
 1686      13050500 
 1687 04a4 97000000 		call	_Z11printStringPKc@plt
 1687      E7800000 
 1688              	.LVL156:
 118:test/../test/Threads_CPP_API_test.hpp ****     __asm__ ("li t1, 5");
 1689              		.loc 3 118 5 is_stmt 1
 1690              		.loc 3 118 25 is_stmt 0
 1691              	#APP
 1692              	# 118 "test/../test/Threads_CPP_API_test.hpp" 1
 119              	    thread_dispatch();
 1693              		li t1, 5
 1694              	# 0 "" 2
 1695              		.loc 3 119 5 is_stmt 1
 1696              		.loc 3 119 20 is_stmt 0
 1697              	#NO_APP
 1698 04b0 97000000 		call	_Z15thread_dispatchv@plt
 1698      E7800000 
 1699              	.LVL157:
 120:test/../test/Threads_CPP_API_test.hpp **** 
 121:test/../test/Threads_CPP_API_test.hpp ****     uint64 result = fibonacci(16);
 1700              		.loc 3 121 5 is_stmt 1
 1701              		.loc 3 121 30 is_stmt 0
 1702 04b8 13050001 		li	a0,16
GAS LISTING /tmp/ccxRZoB4.s 			page 40


 1703 04bc 97000000 		call	_Z9fibonaccim
 1703      E7800000 
 1704              	.LVL158:
 1705 04c4 13090500 		mv	s2,a0
 1706              	.LVL159:
 122:test/../test/Threads_CPP_API_test.hpp ****     printString("D: fibonaci="); printInt(result); printString("\n");
 1707              		.loc 3 122 5 is_stmt 1
 1708              		.loc 3 122 16 is_stmt 0
 1709 04c8 17050000 		lla	a0,.LC14
 1709      13050500 
 1710              	.LVL160:
 1711 04d0 97000000 		call	_Z11printStringPKc@plt
 1711      E7800000 
 1712              	.LVL161:
 1713              		.loc 3 122 34 is_stmt 1
 1714              		.loc 3 122 42 is_stmt 0
 1715 04d8 13060000 		li	a2,0
 1716 04dc 9305A000 		li	a1,10
 1717 04e0 1B050900 		sext.w	a0,s2
 1718 04e4 97000000 		call	_Z8printIntiii@plt
 1718      E7800000 
 1719              	.LVL162:
 1720              		.loc 3 122 52 is_stmt 1
 1721              		.loc 3 122 63 is_stmt 0
 1722 04ec 17050000 		lla	a0,.LC4
 1722      13050500 
 1723 04f4 97000000 		call	_Z11printStringPKc@plt
 1723      E7800000 
 1724              	.LVL163:
 1725 04fc 6F000004 		j	.L101
 1726              	.L104:
 123:test/../test/Threads_CPP_API_test.hpp **** 
 124:test/../test/Threads_CPP_API_test.hpp ****     for (; i < 16; i++) {
 125:test/../test/Threads_CPP_API_test.hpp ****         printString("D: i="); printInt(i); printString("\n");
 1727              		.loc 3 125 9 is_stmt 1 discriminator 1
 1728              		.loc 3 125 20 is_stmt 0 discriminator 1
 1729 0500 17050000 		lla	a0,.LC12
 1729      13050500 
 1730 0508 97000000 		call	_Z11printStringPKc@plt
 1730      E7800000 
 1731              	.LVL164:
 1732              		.loc 3 125 31 is_stmt 1 discriminator 1
 1733              		.loc 3 125 39 is_stmt 0 discriminator 1
 1734 0510 13060000 		li	a2,0
 1735 0514 9305A000 		li	a1,10
 1736 0518 13850400 		mv	a0,s1
 1737 051c 97000000 		call	_Z8printIntiii@plt
 1737      E7800000 
 1738              	.LVL165:
 1739              		.loc 3 125 44 is_stmt 1 discriminator 1
 1740              		.loc 3 125 55 is_stmt 0 discriminator 1
 1741 0524 17050000 		lla	a0,.LC4
 1741      13050500 
 1742 052c 97000000 		call	_Z11printStringPKc@plt
 1742      E7800000 
 1743              	.LVL166:
 124:test/../test/Threads_CPP_API_test.hpp ****         printString("D: i="); printInt(i); printString("\n");
GAS LISTING /tmp/ccxRZoB4.s 			page 41


 1744              		.loc 3 124 5 is_stmt 1 discriminator 1
 1745 0534 9B841400 		addiw	s1,s1,1
 1746              	.LVL167:
 1747 0538 93F4F40F 		andi	s1,s1,0xff
 1748              	.LVL168:
 1749              	.L101:
 124:test/../test/Threads_CPP_API_test.hpp ****         printString("D: i="); printInt(i); printString("\n");
 1750              		.loc 3 124 5 discriminator 2
 124:test/../test/Threads_CPP_API_test.hpp ****         printString("D: i="); printInt(i); printString("\n");
 1751              		.loc 3 124 14 discriminator 2
 1752 053c 9307F000 		li	a5,15
 1753 0540 E3F097FC 		bleu	s1,a5,.L104
 126:test/../test/Threads_CPP_API_test.hpp ****     }
 127:test/../test/Threads_CPP_API_test.hpp **** 
 128:test/../test/Threads_CPP_API_test.hpp ****     printString("D finished!\n");
 1754              		.loc 3 128 5
 1755              		.loc 3 128 16 is_stmt 0
 1756 0544 17050000 		lla	a0,.LC15
 1756      13050500 
 1757 054c 97000000 		call	_Z11printStringPKc@plt
 1757      E7800000 
 1758              	.LVL169:
 129:test/../test/Threads_CPP_API_test.hpp ****     finishedD = true;
 1759              		.loc 3 129 5 is_stmt 1
 1760              		.loc 3 129 15 is_stmt 0
 1761 0554 93071000 		li	a5,1
 1762 0558 17070000 		sb	a5,.LANCHOR0+20,a4
 1762      2300F700 
 130:test/../test/Threads_CPP_API_test.hpp ****     thread_dispatch();
 1763              		.loc 3 130 5 is_stmt 1
 1764              		.loc 3 130 20 is_stmt 0
 1765 0560 97000000 		call	_Z15thread_dispatchv@plt
 1765      E7800000 
 1766              	.LVL170:
 131:test/../test/Threads_CPP_API_test.hpp **** }
 1767              		.loc 3 131 1
 1768 0568 83308101 		ld	ra,24(sp)
 1769              		.cfi_restore 1
 1770 056c 03340101 		ld	s0,16(sp)
 1771              		.cfi_restore 8
 1772              		.cfi_def_cfa 2, 32
 1773 0570 83348100 		ld	s1,8(sp)
 1774              		.cfi_restore 9
 1775              	.LVL171:
 1776 0574 03390100 		ld	s2,0(sp)
 1777              		.cfi_restore 18
 1778              	.LVL172:
 1779 0578 13010102 		addi	sp,sp,32
 1780              		.cfi_def_cfa_offset 0
 1781 057c 67800000 		jr	ra
 1782              		.cfi_endproc
 1783              	.LFE74:
 1785              		.section	.text._ZN7WorkerD3runEv,"axG",@progbits,_ZN7WorkerD3runEv,comdat
 1786              		.align	2
 1787              		.weak	_ZN7WorkerD3runEv
 1789              	_ZN7WorkerD3runEv:
 1790              	.LFB70:
GAS LISTING /tmp/ccxRZoB4.s 			page 42


  54:test/../test/Threads_CPP_API_test.hpp ****         workerBodyD(nullptr);
 1791              		.loc 3 54 10 is_stmt 1
 1792              		.cfi_startproc
 1793              	.LVL173:
 1794 0000 130101FF 		addi	sp,sp,-16
 1795              		.cfi_def_cfa_offset 16
 1796 0004 23341100 		sd	ra,8(sp)
 1797 0008 23308100 		sd	s0,0(sp)
 1798              		.cfi_offset 1, -8
 1799              		.cfi_offset 8, -16
 1800 000c 13040101 		addi	s0,sp,16
 1801              		.cfi_def_cfa 8, 0
  55:test/../test/Threads_CPP_API_test.hpp ****     }
 1802              		.loc 3 55 9
  55:test/../test/Threads_CPP_API_test.hpp ****     }
 1803              		.loc 3 55 20 is_stmt 0
 1804 0010 93050000 		li	a1,0
 1805 0014 97000000 		call	_ZN7WorkerD11workerBodyDEPv
 1805      E7800000 
 1806              	.LVL174:
  56:test/../test/Threads_CPP_API_test.hpp **** };
 1807              		.loc 3 56 5
 1808 001c 83308100 		ld	ra,8(sp)
 1809              		.cfi_restore 1
 1810 0020 03340100 		ld	s0,0(sp)
 1811              		.cfi_restore 8
 1812              		.cfi_def_cfa 2, 16
 1813 0024 13010101 		addi	sp,sp,16
 1814              		.cfi_def_cfa_offset 0
 1815 0028 67800000 		jr	ra
 1816              		.cfi_endproc
 1817              	.LFE70:
 1819              		.section	.rodata.str1.8
 1820 00ad 000000   		.align	3
 1821              	.LC16:
 1822 00b0 54687265 		.string	"ThreadA created\n"
 1822      61644120 
 1822      63726561 
 1822      7465640A 
 1822      00
 1823 00c1 00000000 		.align	3
 1823      000000
 1824              	.LC17:
 1825 00c8 54687265 		.string	"ThreadB created\n"
 1825      61644220 
 1825      63726561 
 1825      7465640A 
 1825      00
 1826 00d9 00000000 		.align	3
 1826      000000
 1827              	.LC18:
 1828 00e0 54687265 		.string	"ThreadC created\n"
 1828      61644320 
 1828      63726561 
 1828      7465640A 
 1828      00
 1829 00f1 00000000 		.align	3
GAS LISTING /tmp/ccxRZoB4.s 			page 43


 1829      000000
 1830              	.LC19:
 1831 00f8 54687265 		.string	"ThreadD created\n"
 1831      61644420 
 1831      63726561 
 1831      7465640A 
 1831      00
 1832              		.text
 1833              		.align	2
 1834              		.globl	_Z20Threads_CPP_API_testv
 1836              	_Z20Threads_CPP_API_testv:
 1837              	.LFB75:
 132:test/../test/Threads_CPP_API_test.hpp **** 
 133:test/../test/Threads_CPP_API_test.hpp **** 
 134:test/../test/Threads_CPP_API_test.hpp **** void Threads_CPP_API_test() {
 1838              		.loc 3 134 29 is_stmt 1
 1839              		.cfi_startproc
 1840 0580 130101FC 		addi	sp,sp,-64
 1841              		.cfi_def_cfa_offset 64
 1842 0584 233C1102 		sd	ra,56(sp)
 1843 0588 23388102 		sd	s0,48(sp)
 1844 058c 23349102 		sd	s1,40(sp)
 1845              		.cfi_offset 1, -8
 1846              		.cfi_offset 8, -16
 1847              		.cfi_offset 9, -24
 1848 0590 13040104 		addi	s0,sp,64
 1849              		.cfi_def_cfa 8, 0
 135:test/../test/Threads_CPP_API_test.hpp ****     Thread* threads[4];
 1850              		.loc 3 135 5
 136:test/../test/Threads_CPP_API_test.hpp **** 
 137:test/../test/Threads_CPP_API_test.hpp ****     threads[0] = new WorkerA();
 1851              		.loc 3 137 5
 1852              		.loc 3 137 30 is_stmt 0
 1853 0594 13050001 		li	a0,16
 1854 0598 97000000 		call	_ZN6ThreadnwEm@plt
 1854      E7800000 
 1855              	.LVL175:
 1856              	.LBB212:
 1857              	.LBB213:
 1858              	.LBB214:
 1859              	.LBB215:
 1860              		.file 5 "test/../test/../h/syscall_cpp.hpp"
   1:test/../test/../h/syscall_cpp.hpp **** //
   2:test/../test/../h/syscall_cpp.hpp **** // Created by os on 8/12/22.
   3:test/../test/../h/syscall_cpp.hpp **** //
   4:test/../test/../h/syscall_cpp.hpp **** 
   5:test/../test/../h/syscall_cpp.hpp **** #ifndef PROJECT_BASE_SYSCALL_CPP_HPP
   6:test/../test/../h/syscall_cpp.hpp **** #define PROJECT_BASE_SYSCALL_CPP_HPP
   7:test/../test/../h/syscall_cpp.hpp **** 
   8:test/../test/../h/syscall_cpp.hpp **** 
   9:test/../test/../h/syscall_cpp.hpp **** #include "syscall_c.h"
  10:test/../test/../h/syscall_cpp.hpp **** 
  11:test/../test/../h/syscall_cpp.hpp **** 
  12:test/../test/../h/syscall_cpp.hpp **** class Thread {
  13:test/../test/../h/syscall_cpp.hpp **** public:
  14:test/../test/../h/syscall_cpp.hpp ****     Thread (void (*body)(void*), void* arg);
  15:test/../test/../h/syscall_cpp.hpp ****     virtual ~Thread (){};
GAS LISTING /tmp/ccxRZoB4.s 			page 44


  16:test/../test/../h/syscall_cpp.hpp ****     int start ();
  17:test/../test/../h/syscall_cpp.hpp ****     static void dispatch ();
  18:test/../test/../h/syscall_cpp.hpp ****     static void wrapper(void* t);
  19:test/../test/../h/syscall_cpp.hpp ****     static int sleep (time_t);
  20:test/../test/../h/syscall_cpp.hpp **** 
  21:test/../test/../h/syscall_cpp.hpp ****     void* operator new (size_t size);
  22:test/../test/../h/syscall_cpp.hpp ****     void operator delete (void* addr) noexcept;
  23:test/../test/../h/syscall_cpp.hpp **** 
  24:test/../test/../h/syscall_cpp.hpp **** 
  25:test/../test/../h/syscall_cpp.hpp ****     //static int sleep (time_t);
  26:test/../test/../h/syscall_cpp.hpp **** protected:
  27:test/../test/../h/syscall_cpp.hpp ****     Thread () : myHandle(nullptr){};
 1861              		.loc 5 27 33
 1862 05a0 23340500 		sd	zero,8(a0)
 1863              	.LVL176:
 1864              	.LBE215:
 1865              	.LBE214:
  22:test/../test/Threads_CPP_API_test.hpp **** 
 1866              		.loc 3 22 22
 1867 05a4 97070000 		lla	a5,_ZTV7WorkerA+16
 1867      93870700 
 1868 05ac 2330F500 		sd	a5,0(a0)
 1869              	.LVL177:
 1870              	.LBE213:
 1871              	.LBE212:
 1872              		.loc 3 137 16
 1873 05b0 2330A4FC 		sd	a0,-64(s0)
 138:test/../test/Threads_CPP_API_test.hpp ****     printString("ThreadA created\n");
 1874              		.loc 3 138 5 is_stmt 1
 1875              		.loc 3 138 16 is_stmt 0
 1876 05b4 17050000 		lla	a0,.LC16
 1876      13050500 
 1877 05bc 97000000 		call	_Z11printStringPKc@plt
 1877      E7800000 
 1878              	.LVL178:
 139:test/../test/Threads_CPP_API_test.hpp **** 
 140:test/../test/Threads_CPP_API_test.hpp ****     threads[1] = new WorkerB();
 1879              		.loc 3 140 5 is_stmt 1
 1880              		.loc 3 140 30 is_stmt 0
 1881 05c4 13050001 		li	a0,16
 1882 05c8 97000000 		call	_ZN6ThreadnwEm@plt
 1882      E7800000 
 1883              	.LVL179:
 1884              	.LBB216:
 1885              	.LBB217:
 1886              	.LBB218:
 1887              	.LBB219:
 1888              		.loc 5 27 33
 1889 05d0 23340500 		sd	zero,8(a0)
 1890              	.LVL180:
 1891              	.LBE219:
 1892              	.LBE218:
  32:test/../test/Threads_CPP_API_test.hpp **** 
 1893              		.loc 3 32 22
 1894 05d4 97070000 		lla	a5,_ZTV7WorkerB+16
 1894      93870700 
 1895 05dc 2330F500 		sd	a5,0(a0)
GAS LISTING /tmp/ccxRZoB4.s 			page 45


 1896              	.LVL181:
 1897              	.LBE217:
 1898              	.LBE216:
 1899              		.loc 3 140 16
 1900 05e0 2334A4FC 		sd	a0,-56(s0)
 141:test/../test/Threads_CPP_API_test.hpp ****     printString("ThreadB created\n");
 1901              		.loc 3 141 5 is_stmt 1
 1902              		.loc 3 141 16 is_stmt 0
 1903 05e4 17050000 		lla	a0,.LC17
 1903      13050500 
 1904 05ec 97000000 		call	_Z11printStringPKc@plt
 1904      E7800000 
 1905              	.LVL182:
 142:test/../test/Threads_CPP_API_test.hpp **** 
 143:test/../test/Threads_CPP_API_test.hpp ****     threads[2] = new WorkerC();
 1906              		.loc 3 143 5 is_stmt 1
 1907              		.loc 3 143 30 is_stmt 0
 1908 05f4 13050001 		li	a0,16
 1909 05f8 97000000 		call	_ZN6ThreadnwEm@plt
 1909      E7800000 
 1910              	.LVL183:
 1911              	.LBB220:
 1912              	.LBB221:
 1913              	.LBB222:
 1914              	.LBB223:
 1915              		.loc 5 27 33
 1916 0600 23340500 		sd	zero,8(a0)
 1917              	.LVL184:
 1918              	.LBE223:
 1919              	.LBE222:
  42:test/../test/Threads_CPP_API_test.hpp **** 
 1920              		.loc 3 42 22
 1921 0604 97070000 		lla	a5,_ZTV7WorkerC+16
 1921      93870700 
 1922 060c 2330F500 		sd	a5,0(a0)
 1923              	.LVL185:
 1924              	.LBE221:
 1925              	.LBE220:
 1926              		.loc 3 143 16
 1927 0610 2338A4FC 		sd	a0,-48(s0)
 144:test/../test/Threads_CPP_API_test.hpp ****     printString("ThreadC created\n");
 1928              		.loc 3 144 5 is_stmt 1
 1929              		.loc 3 144 16 is_stmt 0
 1930 0614 17050000 		lla	a0,.LC18
 1930      13050500 
 1931 061c 97000000 		call	_Z11printStringPKc@plt
 1931      E7800000 
 1932              	.LVL186:
 145:test/../test/Threads_CPP_API_test.hpp **** 
 146:test/../test/Threads_CPP_API_test.hpp ****     threads[3] = new WorkerD();
 1933              		.loc 3 146 5 is_stmt 1
 1934              		.loc 3 146 30 is_stmt 0
 1935 0624 13050001 		li	a0,16
 1936 0628 97000000 		call	_ZN6ThreadnwEm@plt
 1936      E7800000 
 1937              	.LVL187:
 1938              	.LBB224:
GAS LISTING /tmp/ccxRZoB4.s 			page 46


 1939              	.LBB225:
 1940              	.LBB226:
 1941              	.LBB227:
 1942              		.loc 5 27 33
 1943 0630 23340500 		sd	zero,8(a0)
 1944              	.LVL188:
 1945              	.LBE227:
 1946              	.LBE226:
  52:test/../test/Threads_CPP_API_test.hpp **** 
 1947              		.loc 3 52 22
 1948 0634 97070000 		lla	a5,_ZTV7WorkerD+16
 1948      93870700 
 1949 063c 2330F500 		sd	a5,0(a0)
 1950              	.LVL189:
 1951              	.LBE225:
 1952              	.LBE224:
 1953              		.loc 3 146 16
 1954 0640 233CA4FC 		sd	a0,-40(s0)
 147:test/../test/Threads_CPP_API_test.hpp ****     printString("ThreadD created\n");
 1955              		.loc 3 147 5 is_stmt 1
 1956              		.loc 3 147 16 is_stmt 0
 1957 0644 17050000 		lla	a0,.LC19
 1957      13050500 
 1958 064c 97000000 		call	_Z11printStringPKc@plt
 1958      E7800000 
 1959              	.LVL190:
 1960              	.LBB228:
 148:test/../test/Threads_CPP_API_test.hpp **** 
 149:test/../test/Threads_CPP_API_test.hpp ****     for(int i=0; i<4; i++) {
 1961              		.loc 3 149 13
 1962 0654 93040000 		li	s1,0
 1963              	.L109:
 1964              	.LVL191:
 1965              		.loc 3 149 19 is_stmt 1 discriminator 1
 1966 0658 93073000 		li	a5,3
 1967 065c 63C69702 		bgt	s1,a5,.L108
 150:test/../test/Threads_CPP_API_test.hpp ****         threads[i]->start();
 1968              		.loc 3 150 9
 1969              		.loc 3 150 18 is_stmt 0
 1970 0660 93973400 		slli	a5,s1,3
 1971 0664 130704FE 		addi	a4,s0,-32
 1972 0668 B307F700 		add	a5,a4,a5
 1973              		.loc 3 150 26
 1974 066c 03B507FE 		ld	a0,-32(a5)
 1975 0670 97000000 		call	_ZN6Thread5startEv@plt
 1975      E7800000 
 1976              	.LVL192:
 149:test/../test/Threads_CPP_API_test.hpp ****         threads[i]->start();
 1977              		.loc 3 149 5 is_stmt 1
 1978 0678 9B841400 		addiw	s1,s1,1
 1979              	.LVL193:
 1980 067c 6FF0DFFD 		j	.L109
 1981              	.LVL194:
 1982              	.L110:
 1983              	.LBE228:
 151:test/../test/Threads_CPP_API_test.hpp ****     }
 152:test/../test/Threads_CPP_API_test.hpp **** 
GAS LISTING /tmp/ccxRZoB4.s 			page 47


 153:test/../test/Threads_CPP_API_test.hpp ****     while (!(finishedA && finishedB && finishedC && finishedD)) {
 154:test/../test/Threads_CPP_API_test.hpp ****         Thread::dispatch();
 1984              		.loc 3 154 9
 1985              		.loc 3 154 25 is_stmt 0
 1986 0680 97000000 		call	_ZN6Thread8dispatchEv@plt
 1986      E7800000 
 1987              	.LVL195:
 1988              	.L108:
 153:test/../test/Threads_CPP_API_test.hpp ****         Thread::dispatch();
 1989              		.loc 3 153 5 is_stmt 1
 153:test/../test/Threads_CPP_API_test.hpp ****         Thread::dispatch();
 1990              		.loc 3 153 12
 1991 0688 97070000 		lbu	a5,.LANCHOR0+17
 1991      83C70700 
 1992 0690 E38807FE 		beqz	a5,.L110
 153:test/../test/Threads_CPP_API_test.hpp ****         Thread::dispatch();
 1993              		.loc 3 153 24 is_stmt 0 discriminator 1
 1994 0694 97070000 		lbu	a5,.LANCHOR0+18
 1994      83C70700 
 1995 069c E38207FE 		beqz	a5,.L110
 153:test/../test/Threads_CPP_API_test.hpp ****         Thread::dispatch();
 1996              		.loc 3 153 37 discriminator 2
 1997 06a0 97070000 		lbu	a5,.LANCHOR0+19
 1997      83C70700 
 1998 06a8 E38C07FC 		beqz	a5,.L110
 153:test/../test/Threads_CPP_API_test.hpp ****         Thread::dispatch();
 1999              		.loc 3 153 12 discriminator 3
 2000 06ac 97070000 		lbu	a5,.LANCHOR0+20
 2000      83C70700 
 2001 06b4 E38607FC 		beqz	a5,.L110
 2002              	.LBB229:
 155:test/../test/Threads_CPP_API_test.hpp ****     }
 156:test/../test/Threads_CPP_API_test.hpp **** 
 157:test/../test/Threads_CPP_API_test.hpp ****     for (auto thread: threads) { delete thread; }
 2003              		.loc 3 157 23
 2004 06b8 930404FC 		addi	s1,s0,-64
 2005              	.LVL196:
 2006 06bc 6F008000 		j	.L111
 2007              	.LVL197:
 2008              	.L113:
 2009              		.loc 3 157 5 is_stmt 1 discriminator 5
 2010 06c0 93848400 		addi	s1,s1,8
 2011              	.LVL198:
 2012              	.L111:
 2013              		.loc 3 157 23 discriminator 6
 2014 06c4 930704FE 		addi	a5,s0,-32
 2015 06c8 638EF400 		beq	s1,a5,.L107
 2016              		.loc 3 157 15 is_stmt 0 discriminator 2
 2017 06cc 03B50400 		ld	a0,0(s1)
 2018              	.LVL199:
 2019              		.loc 3 157 34 is_stmt 1 discriminator 2
 2020              		.loc 3 157 47 is_stmt 0 discriminator 2
 2021 06d0 E30805FE 		beqz	a0,.L113
 2022              		.loc 3 157 41 discriminator 3
 2023 06d4 83370500 		ld	a5,0(a0)
 2024 06d8 83B78700 		ld	a5,8(a5)
 2025 06dc E7800700 		jalr	a5
GAS LISTING /tmp/ccxRZoB4.s 			page 48


 2026              	.LVL200:
 2027 06e0 6FF01FFE 		j	.L113
 2028              	.L107:
 2029              	.LBE229:
 158:test/../test/Threads_CPP_API_test.hpp **** }
 2030              		.loc 3 158 1
 2031 06e4 83308103 		ld	ra,56(sp)
 2032              		.cfi_restore 1
 2033 06e8 03340103 		ld	s0,48(sp)
 2034              		.cfi_restore 8
 2035              		.cfi_def_cfa 2, 64
 2036 06ec 83348102 		ld	s1,40(sp)
 2037              		.cfi_restore 9
 2038              	.LVL201:
 2039 06f0 13010104 		addi	sp,sp,64
 2040              		.cfi_def_cfa_offset 0
 2041 06f4 67800000 		jr	ra
 2042              		.cfi_endproc
 2043              	.LFE75:
 2045              		.align	2
 2046              		.globl	_ZN16ProducerKeyboard16producerKeyboardEPv
 2048              	_ZN16ProducerKeyboard16producerKeyboardEPv:
 2049              	.LFB80:
  33:test/../test/ConsumerProducer_CPP_Sync_API_test.hpp ****     struct thread_data *data = (struct thread_data *) arg;
 2050              		.loc 2 33 52 is_stmt 1
 2051              		.cfi_startproc
 2052              	.LVL202:
 2053 06f8 130101FD 		addi	sp,sp,-48
 2054              		.cfi_def_cfa_offset 48
 2055 06fc 23341102 		sd	ra,40(sp)
 2056 0700 23308102 		sd	s0,32(sp)
 2057 0704 233C9100 		sd	s1,24(sp)
 2058 0708 23382101 		sd	s2,16(sp)
 2059 070c 23343101 		sd	s3,8(sp)
 2060              		.cfi_offset 1, -8
 2061              		.cfi_offset 8, -16
 2062              		.cfi_offset 9, -24
 2063              		.cfi_offset 18, -32
 2064              		.cfi_offset 19, -40
 2065 0710 13040103 		addi	s0,sp,48
 2066              		.cfi_def_cfa 8, 0
 2067 0714 93090500 		mv	s3,a0
 2068 0718 93840500 		mv	s1,a1
  34:test/../test/ConsumerProducer_CPP_Sync_API_test.hpp **** 
 2069              		.loc 2 34 5
 2070              	.LVL203:
  36:test/../test/ConsumerProducer_CPP_Sync_API_test.hpp ****     int i = 0;
 2071              		.loc 2 36 5
  37:test/../test/ConsumerProducer_CPP_Sync_API_test.hpp ****     while ((key = getc()) != 0x20) {
 2072              		.loc 2 37 5
  37:test/../test/ConsumerProducer_CPP_Sync_API_test.hpp ****     while ((key = getc()) != 0x20) {
 2073              		.loc 2 37 9 is_stmt 0
 2074 071c 13090000 		li	s2,0
 2075 0720 6F00C000 		j	.L117
 2076              	.LVL204:
 2077              	.L121:
  43:test/../test/ConsumerProducer_CPP_Sync_API_test.hpp ****         }
GAS LISTING /tmp/ccxRZoB4.s 			page 49


 2078              		.loc 2 43 13 is_stmt 1
  43:test/../test/ConsumerProducer_CPP_Sync_API_test.hpp ****         }
 2079              		.loc 2 43 29 is_stmt 0
 2080 0724 97000000 		call	_ZN6Thread8dispatchEv@plt
 2080      E7800000 
 2081              	.LVL205:
 2082              	.L117:
  38:test/../test/ConsumerProducer_CPP_Sync_API_test.hpp ****         data->buffer->put(key);
 2083              		.loc 2 38 5 is_stmt 1
  38:test/../test/ConsumerProducer_CPP_Sync_API_test.hpp ****         data->buffer->put(key);
 2084              		.loc 2 38 27
  38:test/../test/ConsumerProducer_CPP_Sync_API_test.hpp ****         data->buffer->put(key);
 2085              		.loc 2 38 23 is_stmt 0
 2086 072c 97000000 		call	_Z4getcv@plt
 2086      E7800000 
 2087              	.LVL206:
  38:test/../test/ConsumerProducer_CPP_Sync_API_test.hpp ****         data->buffer->put(key);
 2088              		.loc 2 38 17
 2089 0734 9B050500 		sext.w	a1,a0
 2090              	.LVL207:
  38:test/../test/ConsumerProducer_CPP_Sync_API_test.hpp ****         data->buffer->put(key);
 2091              		.loc 2 38 27
 2092 0738 93070002 		li	a5,32
 2093 073c 638AF502 		beq	a1,a5,.L118
  39:test/../test/ConsumerProducer_CPP_Sync_API_test.hpp ****         i++;
 2094              		.loc 2 39 9 is_stmt 1
  39:test/../test/ConsumerProducer_CPP_Sync_API_test.hpp ****         i++;
 2095              		.loc 2 39 26 is_stmt 0
 2096 0740 03B58400 		ld	a0,8(s1)
 2097 0744 97000000 		call	_ZN9BufferCPP3putEi@plt
 2097      E7800000 
 2098              	.LVL208:
  40:test/../test/ConsumerProducer_CPP_Sync_API_test.hpp **** 
 2099              		.loc 2 40 9 is_stmt 1
  40:test/../test/ConsumerProducer_CPP_Sync_API_test.hpp **** 
 2100              		.loc 2 40 10 is_stmt 0
 2101 074c 1B071900 		addiw	a4,s2,1
 2102 0750 1B090700 		sext.w	s2,a4
 2103              	.LVL209:
  42:test/../test/ConsumerProducer_CPP_Sync_API_test.hpp ****             Thread::dispatch();
 2104              		.loc 2 42 9 is_stmt 1
  42:test/../test/ConsumerProducer_CPP_Sync_API_test.hpp ****             Thread::dispatch();
 2105              		.loc 2 42 29 is_stmt 0
 2106 0754 83A60400 		lw	a3,0(s1)
  42:test/../test/ConsumerProducer_CPP_Sync_API_test.hpp ****             Thread::dispatch();
 2107              		.loc 2 42 21
 2108 0758 9B972600 		slliw	a5,a3,2
 2109 075c BB87D700 		addw	a5,a5,a3
 2110 0760 9B971700 		slliw	a5,a5,1
  42:test/../test/ConsumerProducer_CPP_Sync_API_test.hpp ****             Thread::dispatch();
 2111              		.loc 2 42 15
 2112 0764 BB67F702 		remw	a5,a4,a5
  42:test/../test/ConsumerProducer_CPP_Sync_API_test.hpp ****             Thread::dispatch();
 2113              		.loc 2 42 9
 2114 0768 E39207FC 		bnez	a5,.L117
 2115 076c 6FF09FFB 		j	.L121
 2116              	.LVL210:
GAS LISTING /tmp/ccxRZoB4.s 			page 50


 2117              	.L118:
  47:test/../test/ConsumerProducer_CPP_Sync_API_test.hpp ****     td->buffer->put('!');
 2118              		.loc 2 47 5 is_stmt 1
  47:test/../test/ConsumerProducer_CPP_Sync_API_test.hpp ****     td->buffer->put('!');
 2119              		.loc 2 47 15 is_stmt 0
 2120 0770 93071000 		li	a5,1
 2121 0774 17070000 		sw	a5,.LANCHOR0+24,a4
 2121      2320F700 
  48:test/../test/ConsumerProducer_CPP_Sync_API_test.hpp **** 
 2122              		.loc 2 48 5 is_stmt 1
 2123 077c 83B70901 		ld	a5,16(s3)
  48:test/../test/ConsumerProducer_CPP_Sync_API_test.hpp **** 
 2124              		.loc 2 48 20 is_stmt 0
 2125 0780 93051002 		li	a1,33
 2126              	.LVL211:
 2127 0784 03B58700 		ld	a0,8(a5)
 2128              	.LVL212:
 2129 0788 97000000 		call	_ZN9BufferCPP3putEi@plt
 2129      E7800000 
 2130              	.LVL213:
  50:test/../test/ConsumerProducer_CPP_Sync_API_test.hpp **** }
 2131              		.loc 2 50 5 is_stmt 1
  50:test/../test/ConsumerProducer_CPP_Sync_API_test.hpp **** }
 2132              		.loc 2 50 23 is_stmt 0
 2133 0790 03B50401 		ld	a0,16(s1)
 2134 0794 97000000 		call	_ZN9Semaphore6signalEv@plt
 2134      E7800000 
 2135              	.LVL214:
  51:test/../test/ConsumerProducer_CPP_Sync_API_test.hpp **** 
 2136              		.loc 2 51 1
 2137 079c 83308102 		ld	ra,40(sp)
 2138              		.cfi_restore 1
 2139 07a0 03340102 		ld	s0,32(sp)
 2140              		.cfi_restore 8
 2141              		.cfi_def_cfa 2, 48
 2142 07a4 83348101 		ld	s1,24(sp)
 2143              		.cfi_restore 9
 2144              	.LVL215:
 2145 07a8 03390101 		ld	s2,16(sp)
 2146              		.cfi_restore 18
 2147              	.LVL216:
 2148 07ac 83398100 		ld	s3,8(sp)
 2149              		.cfi_restore 19
 2150              	.LVL217:
 2151 07b0 13010103 		addi	sp,sp,48
 2152              		.cfi_def_cfa_offset 0
 2153 07b4 67800000 		jr	ra
 2154              		.cfi_endproc
 2155              	.LFE80:
 2157              		.section	.text._ZN16ProducerKeyboard3runEv,"axG",@progbits,_ZN16ProducerKeyboard3runEv,comdat
 2158              		.align	2
 2159              		.weak	_ZN16ProducerKeyboard3runEv
 2161              	_ZN16ProducerKeyboard3runEv:
 2162              	.LFB79:
  28:test/../test/ConsumerProducer_CPP_Sync_API_test.hpp ****         producerKeyboard(td);
 2163              		.loc 2 28 10 is_stmt 1
 2164              		.cfi_startproc
GAS LISTING /tmp/ccxRZoB4.s 			page 51


 2165              	.LVL218:
 2166 0000 130101FF 		addi	sp,sp,-16
 2167              		.cfi_def_cfa_offset 16
 2168 0004 23341100 		sd	ra,8(sp)
 2169 0008 23308100 		sd	s0,0(sp)
 2170              		.cfi_offset 1, -8
 2171              		.cfi_offset 8, -16
 2172 000c 13040101 		addi	s0,sp,16
 2173              		.cfi_def_cfa 8, 0
  29:test/../test/ConsumerProducer_CPP_Sync_API_test.hpp ****     }
 2174              		.loc 2 29 9
  29:test/../test/ConsumerProducer_CPP_Sync_API_test.hpp ****     }
 2175              		.loc 2 29 25 is_stmt 0
 2176 0010 83350501 		ld	a1,16(a0)
 2177 0014 97000000 		call	_ZN16ProducerKeyboard16producerKeyboardEPv
 2177      E7800000 
 2178              	.LVL219:
  30:test/../test/ConsumerProducer_CPP_Sync_API_test.hpp **** };
 2179              		.loc 2 30 5
 2180 001c 83308100 		ld	ra,8(sp)
 2181              		.cfi_restore 1
 2182 0020 03340100 		ld	s0,0(sp)
 2183              		.cfi_restore 8
 2184              		.cfi_def_cfa 2, 16
 2185 0024 13010101 		addi	sp,sp,16
 2186              		.cfi_def_cfa_offset 0
 2187 0028 67800000 		jr	ra
 2188              		.cfi_endproc
 2189              	.LFE79:
 2191              		.text
 2192              		.align	2
 2193              		.globl	_ZN8Producer8producerEPv
 2195              	_ZN8Producer8producerEPv:
 2196              	.LFB85:
  64:test/../test/ConsumerProducer_CPP_Sync_API_test.hpp ****     struct thread_data *data = (struct thread_data *) arg;
 2197              		.loc 2 64 36 is_stmt 1
 2198              		.cfi_startproc
 2199              	.LVL220:
 2200 07b8 130101FE 		addi	sp,sp,-32
 2201              		.cfi_def_cfa_offset 32
 2202 07bc 233C1100 		sd	ra,24(sp)
 2203 07c0 23388100 		sd	s0,16(sp)
 2204 07c4 23349100 		sd	s1,8(sp)
 2205 07c8 23302101 		sd	s2,0(sp)
 2206              		.cfi_offset 1, -8
 2207              		.cfi_offset 8, -16
 2208              		.cfi_offset 9, -24
 2209              		.cfi_offset 18, -32
 2210 07cc 13040102 		addi	s0,sp,32
 2211              		.cfi_def_cfa 8, 0
 2212 07d0 93840500 		mv	s1,a1
  65:test/../test/ConsumerProducer_CPP_Sync_API_test.hpp **** 
 2213              		.loc 2 65 5
 2214              	.LVL221:
  67:test/../test/ConsumerProducer_CPP_Sync_API_test.hpp ****     while (!threadEnd) {
 2215              		.loc 2 67 5
  67:test/../test/ConsumerProducer_CPP_Sync_API_test.hpp ****     while (!threadEnd) {
GAS LISTING /tmp/ccxRZoB4.s 			page 52


 2216              		.loc 2 67 9 is_stmt 0
 2217 07d4 13090000 		li	s2,0
 2218 07d8 6F00C000 		j	.L125
 2219              	.LVL222:
 2220              	.L129:
  73:test/../test/ConsumerProducer_CPP_Sync_API_test.hpp ****         }
 2221              		.loc 2 73 13 is_stmt 1
  73:test/../test/ConsumerProducer_CPP_Sync_API_test.hpp ****         }
 2222              		.loc 2 73 29 is_stmt 0
 2223 07dc 97000000 		call	_ZN6Thread8dispatchEv@plt
 2223      E7800000 
 2224              	.LVL223:
 2225              	.L125:
  68:test/../test/ConsumerProducer_CPP_Sync_API_test.hpp ****         data->buffer->put(data->id + '0');
 2226              		.loc 2 68 5 is_stmt 1
  68:test/../test/ConsumerProducer_CPP_Sync_API_test.hpp ****         data->buffer->put(data->id + '0');
 2227              		.loc 2 68 12
 2228 07e4 97070000 		lw	a5,.LANCHOR0+24
 2228      83A70700 
 2229 07ec 639E0702 		bnez	a5,.L126
  69:test/../test/ConsumerProducer_CPP_Sync_API_test.hpp ****         i++;
 2230              		.loc 2 69 9
  69:test/../test/ConsumerProducer_CPP_Sync_API_test.hpp ****         i++;
 2231              		.loc 2 69 33 is_stmt 0
 2232 07f0 83A50400 		lw	a1,0(s1)
  69:test/../test/ConsumerProducer_CPP_Sync_API_test.hpp ****         i++;
 2233              		.loc 2 69 26
 2234 07f4 9B850503 		addiw	a1,a1,48
 2235 07f8 03B58400 		ld	a0,8(s1)
 2236 07fc 97000000 		call	_ZN9BufferCPP3putEi@plt
 2236      E7800000 
 2237              	.LVL224:
  70:test/../test/ConsumerProducer_CPP_Sync_API_test.hpp **** 
 2238              		.loc 2 70 9 is_stmt 1
  70:test/../test/ConsumerProducer_CPP_Sync_API_test.hpp **** 
 2239              		.loc 2 70 10 is_stmt 0
 2240 0804 1B071900 		addiw	a4,s2,1
 2241 0808 1B090700 		sext.w	s2,a4
 2242              	.LVL225:
  72:test/../test/ConsumerProducer_CPP_Sync_API_test.hpp ****             Thread::dispatch();
 2243              		.loc 2 72 9 is_stmt 1
  72:test/../test/ConsumerProducer_CPP_Sync_API_test.hpp ****             Thread::dispatch();
 2244              		.loc 2 72 29 is_stmt 0
 2245 080c 83A60400 		lw	a3,0(s1)
  72:test/../test/ConsumerProducer_CPP_Sync_API_test.hpp ****             Thread::dispatch();
 2246              		.loc 2 72 21
 2247 0810 9B972600 		slliw	a5,a3,2
 2248 0814 BB87D700 		addw	a5,a5,a3
 2249 0818 9B971700 		slliw	a5,a5,1
  72:test/../test/ConsumerProducer_CPP_Sync_API_test.hpp ****             Thread::dispatch();
 2250              		.loc 2 72 15
 2251 081c BB67F702 		remw	a5,a4,a5
  72:test/../test/ConsumerProducer_CPP_Sync_API_test.hpp ****             Thread::dispatch();
 2252              		.loc 2 72 9
 2253 0820 E39207FC 		bnez	a5,.L125
 2254 0824 6FF09FFB 		j	.L129
 2255              	.LVL226:
GAS LISTING /tmp/ccxRZoB4.s 			page 53


 2256              	.L126:
  77:test/../test/ConsumerProducer_CPP_Sync_API_test.hpp **** }
 2257              		.loc 2 77 5 is_stmt 1
  77:test/../test/ConsumerProducer_CPP_Sync_API_test.hpp **** }
 2258              		.loc 2 77 23 is_stmt 0
 2259 0828 03B50401 		ld	a0,16(s1)
 2260 082c 97000000 		call	_ZN9Semaphore6signalEv@plt
 2260      E7800000 
 2261              	.LVL227:
  78:test/../test/ConsumerProducer_CPP_Sync_API_test.hpp **** 
 2262              		.loc 2 78 1
 2263 0834 83308101 		ld	ra,24(sp)
 2264              		.cfi_restore 1
 2265 0838 03340101 		ld	s0,16(sp)
 2266              		.cfi_restore 8
 2267              		.cfi_def_cfa 2, 32
 2268 083c 83348100 		ld	s1,8(sp)
 2269              		.cfi_restore 9
 2270              	.LVL228:
 2271 0840 03390100 		ld	s2,0(sp)
 2272              		.cfi_restore 18
 2273              	.LVL229:
 2274 0844 13010102 		addi	sp,sp,32
 2275              		.cfi_def_cfa_offset 0
 2276 0848 67800000 		jr	ra
 2277              		.cfi_endproc
 2278              	.LFE85:
 2280              		.section	.text._ZN8Producer3runEv,"axG",@progbits,_ZN8Producer3runEv,comdat
 2281              		.align	2
 2282              		.weak	_ZN8Producer3runEv
 2284              	_ZN8Producer3runEv:
 2285              	.LFB84:
  59:test/../test/ConsumerProducer_CPP_Sync_API_test.hpp ****         producer(td);
 2286              		.loc 2 59 10 is_stmt 1
 2287              		.cfi_startproc
 2288              	.LVL230:
 2289 0000 130101FF 		addi	sp,sp,-16
 2290              		.cfi_def_cfa_offset 16
 2291 0004 23341100 		sd	ra,8(sp)
 2292 0008 23308100 		sd	s0,0(sp)
 2293              		.cfi_offset 1, -8
 2294              		.cfi_offset 8, -16
 2295 000c 13040101 		addi	s0,sp,16
 2296              		.cfi_def_cfa 8, 0
  60:test/../test/ConsumerProducer_CPP_Sync_API_test.hpp ****     }
 2297              		.loc 2 60 9
  60:test/../test/ConsumerProducer_CPP_Sync_API_test.hpp ****     }
 2298              		.loc 2 60 17 is_stmt 0
 2299 0010 83350501 		ld	a1,16(a0)
 2300 0014 97000000 		call	_ZN8Producer8producerEPv
 2300      E7800000 
 2301              	.LVL231:
  61:test/../test/ConsumerProducer_CPP_Sync_API_test.hpp **** };
 2302              		.loc 2 61 5
 2303 001c 83308100 		ld	ra,8(sp)
 2304              		.cfi_restore 1
 2305 0020 03340100 		ld	s0,0(sp)
GAS LISTING /tmp/ccxRZoB4.s 			page 54


 2306              		.cfi_restore 8
 2307              		.cfi_def_cfa 2, 16
 2308 0024 13010101 		addi	sp,sp,16
 2309              		.cfi_def_cfa_offset 0
 2310 0028 67800000 		jr	ra
 2311              		.cfi_endproc
 2312              	.LFE84:
 2314              		.text
 2315              		.align	2
 2316              		.globl	_ZN8Consumer8consumerEPv
 2318              	_ZN8Consumer8consumerEPv:
 2319              	.LFB90:
  81:test/../test/ConsumerProducer_CPP_Sync_API_test.hpp ****     thread_data* td;
  82:test/../test/ConsumerProducer_CPP_Sync_API_test.hpp ****     void consumer(void *arg);
  83:test/../test/ConsumerProducer_CPP_Sync_API_test.hpp **** public:
  84:test/../test/ConsumerProducer_CPP_Sync_API_test.hpp ****     Consumer(thread_data* _td):Thread(), td(_td) {}
  85:test/../test/ConsumerProducer_CPP_Sync_API_test.hpp **** 
  86:test/../test/ConsumerProducer_CPP_Sync_API_test.hpp ****     void run() override {
  87:test/../test/ConsumerProducer_CPP_Sync_API_test.hpp ****         consumer(td);
  88:test/../test/ConsumerProducer_CPP_Sync_API_test.hpp ****     }
  89:test/../test/ConsumerProducer_CPP_Sync_API_test.hpp **** };
  90:test/../test/ConsumerProducer_CPP_Sync_API_test.hpp **** 
  91:test/../test/ConsumerProducer_CPP_Sync_API_test.hpp **** void Consumer::consumer(void *arg) {
 2320              		.loc 2 91 36 is_stmt 1
 2321              		.cfi_startproc
 2322              	.LVL232:
 2323 084c 130101FD 		addi	sp,sp,-48
 2324              		.cfi_def_cfa_offset 48
 2325 0850 23341102 		sd	ra,40(sp)
 2326 0854 23308102 		sd	s0,32(sp)
 2327 0858 233C9100 		sd	s1,24(sp)
 2328 085c 23382101 		sd	s2,16(sp)
 2329 0860 23343101 		sd	s3,8(sp)
 2330 0864 23304101 		sd	s4,0(sp)
 2331              		.cfi_offset 1, -8
 2332              		.cfi_offset 8, -16
 2333              		.cfi_offset 9, -24
 2334              		.cfi_offset 18, -32
 2335              		.cfi_offset 19, -40
 2336              		.cfi_offset 20, -48
 2337 0868 13040103 		addi	s0,sp,48
 2338              		.cfi_def_cfa 8, 0
 2339 086c 93090500 		mv	s3,a0
 2340 0870 13890500 		mv	s2,a1
  92:test/../test/ConsumerProducer_CPP_Sync_API_test.hpp ****     struct thread_data *data = (struct thread_data *) arg;
 2341              		.loc 2 92 5
 2342              	.LVL233:
  93:test/../test/ConsumerProducer_CPP_Sync_API_test.hpp **** 
  94:test/../test/ConsumerProducer_CPP_Sync_API_test.hpp ****     int i = 0;
 2343              		.loc 2 94 5
 2344              		.loc 2 94 9 is_stmt 0
 2345 0874 130A0000 		li	s4,0
 2346 0878 6F00C001 		j	.L133
 2347              	.LVL234:
 2348              	.L139:
 2349              	.LBB230:
  95:test/../test/ConsumerProducer_CPP_Sync_API_test.hpp ****     while (!threadEnd) {
GAS LISTING /tmp/ccxRZoB4.s 			page 55


  96:test/../test/ConsumerProducer_CPP_Sync_API_test.hpp ****         int key = data->buffer->get();
  97:test/../test/ConsumerProducer_CPP_Sync_API_test.hpp ****         i++;
  98:test/../test/ConsumerProducer_CPP_Sync_API_test.hpp **** 
  99:test/../test/ConsumerProducer_CPP_Sync_API_test.hpp ****         putc(key);
 100:test/../test/ConsumerProducer_CPP_Sync_API_test.hpp **** 
 101:test/../test/ConsumerProducer_CPP_Sync_API_test.hpp ****         if (i % (5 * data->id) == 0) {
 102:test/../test/ConsumerProducer_CPP_Sync_API_test.hpp ****             Thread::dispatch();
 2350              		.loc 2 102 13 is_stmt 1
 2351              		.loc 2 102 29 is_stmt 0
 2352 087c 97000000 		call	_ZN6Thread8dispatchEv@plt
 2352      E7800000 
 2353              	.LVL235:
 2354 0884 6F000005 		j	.L135
 2355              	.LVL236:
 2356              	.L140:
 103:test/../test/ConsumerProducer_CPP_Sync_API_test.hpp ****         }
 104:test/../test/ConsumerProducer_CPP_Sync_API_test.hpp **** 
 105:test/../test/ConsumerProducer_CPP_Sync_API_test.hpp ****         if (i % 80 == 0) {
 106:test/../test/ConsumerProducer_CPP_Sync_API_test.hpp ****             putc('\n');
 2357              		.loc 2 106 13 is_stmt 1
 2358              		.loc 2 106 17 is_stmt 0
 2359 0888 1305A000 		li	a0,10
 2360 088c 97000000 		call	_Z4putcc@plt
 2360      E7800000 
 2361              	.LVL237:
 2362              	.L133:
 2363              	.LBE230:
  95:test/../test/ConsumerProducer_CPP_Sync_API_test.hpp ****     while (!threadEnd) {
 2364              		.loc 2 95 5 is_stmt 1
  95:test/../test/ConsumerProducer_CPP_Sync_API_test.hpp ****     while (!threadEnd) {
 2365              		.loc 2 95 12
 2366 0894 97070000 		lw	a5,.LANCHOR0+24
 2366      83A70700 
 2367 089c 63920706 		bnez	a5,.L134
 2368              	.LBB231:
  96:test/../test/ConsumerProducer_CPP_Sync_API_test.hpp ****         i++;
 2369              		.loc 2 96 9
  96:test/../test/ConsumerProducer_CPP_Sync_API_test.hpp ****         i++;
 2370              		.loc 2 96 36 is_stmt 0
 2371 08a0 03358900 		ld	a0,8(s2)
 2372 08a4 97000000 		call	_ZN9BufferCPP3getEv@plt
 2372      E7800000 
 2373              	.LVL238:
  97:test/../test/ConsumerProducer_CPP_Sync_API_test.hpp **** 
 2374              		.loc 2 97 9 is_stmt 1
  97:test/../test/ConsumerProducer_CPP_Sync_API_test.hpp **** 
 2375              		.loc 2 97 10 is_stmt 0
 2376 08ac 9B041A00 		addiw	s1,s4,1
 2377 08b0 1B8A0400 		sext.w	s4,s1
 2378              	.LVL239:
  99:test/../test/ConsumerProducer_CPP_Sync_API_test.hpp **** 
 2379              		.loc 2 99 9 is_stmt 1
  99:test/../test/ConsumerProducer_CPP_Sync_API_test.hpp **** 
 2380              		.loc 2 99 13 is_stmt 0
 2381 08b4 1375F50F 		andi	a0,a0,0xff
 2382              	.LVL240:
 2383 08b8 97000000 		call	_Z4putcc@plt
GAS LISTING /tmp/ccxRZoB4.s 			page 56


 2383      E7800000 
 2384              	.LVL241:
 101:test/../test/ConsumerProducer_CPP_Sync_API_test.hpp ****             Thread::dispatch();
 2385              		.loc 2 101 9 is_stmt 1
 101:test/../test/ConsumerProducer_CPP_Sync_API_test.hpp ****             Thread::dispatch();
 2386              		.loc 2 101 28 is_stmt 0
 2387 08c0 03270900 		lw	a4,0(s2)
 101:test/../test/ConsumerProducer_CPP_Sync_API_test.hpp ****             Thread::dispatch();
 2388              		.loc 2 101 20
 2389 08c4 9B172700 		slliw	a5,a4,2
 2390 08c8 BB87E700 		addw	a5,a5,a4
 101:test/../test/ConsumerProducer_CPP_Sync_API_test.hpp ****             Thread::dispatch();
 2391              		.loc 2 101 15
 2392 08cc BBE7F402 		remw	a5,s1,a5
 101:test/../test/ConsumerProducer_CPP_Sync_API_test.hpp ****             Thread::dispatch();
 2393              		.loc 2 101 9
 2394 08d0 E38607FA 		beqz	a5,.L139
 2395              	.L135:
 105:test/../test/ConsumerProducer_CPP_Sync_API_test.hpp ****             putc('\n');
 2396              		.loc 2 105 9 is_stmt 1
 105:test/../test/ConsumerProducer_CPP_Sync_API_test.hpp ****             putc('\n');
 2397              		.loc 2 105 15 is_stmt 0
 2398 08d4 93070005 		li	a5,80
 2399 08d8 BBE4F402 		remw	s1,s1,a5
 2400              	.LVL242:
 105:test/../test/ConsumerProducer_CPP_Sync_API_test.hpp ****             putc('\n');
 2401              		.loc 2 105 9
 2402 08dc E39C04FA 		bnez	s1,.L133
 2403 08e0 6FF09FFA 		j	.L140
 2404              	.L141:
 2405              	.LBE231:
 2406              	.LBB232:
 107:test/../test/ConsumerProducer_CPP_Sync_API_test.hpp ****         }
 108:test/../test/ConsumerProducer_CPP_Sync_API_test.hpp ****     }
 109:test/../test/ConsumerProducer_CPP_Sync_API_test.hpp **** 
 110:test/../test/ConsumerProducer_CPP_Sync_API_test.hpp **** 
 111:test/../test/ConsumerProducer_CPP_Sync_API_test.hpp ****     while (td->buffer->getCnt() > 0) {
 112:test/../test/ConsumerProducer_CPP_Sync_API_test.hpp ****         int key = td->buffer->get();
 2407              		.loc 2 112 9 is_stmt 1
 2408              		.loc 2 112 19 is_stmt 0
 2409 08e4 83B70901 		ld	a5,16(s3)
 2410              		.loc 2 112 34
 2411 08e8 03B58700 		ld	a0,8(a5)
 2412 08ec 97000000 		call	_ZN9BufferCPP3getEv@plt
 2412      E7800000 
 2413              	.LVL243:
 113:test/../test/ConsumerProducer_CPP_Sync_API_test.hpp ****         Console::putc(key);
 2414              		.loc 2 113 9 is_stmt 1
 2415              		.loc 2 113 22 is_stmt 0
 2416 08f4 1375F50F 		andi	a0,a0,0xff
 2417              	.LVL244:
 2418 08f8 97000000 		call	_ZN7Console4putcEc@plt
 2418      E7800000 
 2419              	.LVL245:
 2420              	.L134:
 2421              	.LBE232:
 111:test/../test/ConsumerProducer_CPP_Sync_API_test.hpp ****         int key = td->buffer->get();
GAS LISTING /tmp/ccxRZoB4.s 			page 57


 2422              		.loc 2 111 5 is_stmt 1
 111:test/../test/ConsumerProducer_CPP_Sync_API_test.hpp ****         int key = td->buffer->get();
 2423              		.loc 2 111 33
 111:test/../test/ConsumerProducer_CPP_Sync_API_test.hpp ****         int key = td->buffer->get();
 2424              		.loc 2 111 12 is_stmt 0
 2425 0900 83B70901 		ld	a5,16(s3)
 111:test/../test/ConsumerProducer_CPP_Sync_API_test.hpp ****         int key = td->buffer->get();
 2426              		.loc 2 111 30
 2427 0904 03B58700 		ld	a0,8(a5)
 2428 0908 97000000 		call	_ZN9BufferCPP6getCntEv@plt
 2428      E7800000 
 2429              	.LVL246:
 111:test/../test/ConsumerProducer_CPP_Sync_API_test.hpp ****         int key = td->buffer->get();
 2430              		.loc 2 111 33
 2431 0910 E34AA0FC 		bgtz	a0,.L141
 114:test/../test/ConsumerProducer_CPP_Sync_API_test.hpp ****     }
 115:test/../test/ConsumerProducer_CPP_Sync_API_test.hpp **** 
 116:test/../test/ConsumerProducer_CPP_Sync_API_test.hpp ****     data->wait->signal();
 2432              		.loc 2 116 5 is_stmt 1
 2433              		.loc 2 116 23 is_stmt 0
 2434 0914 03350901 		ld	a0,16(s2)
 2435 0918 97000000 		call	_ZN9Semaphore6signalEv@plt
 2435      E7800000 
 2436              	.LVL247:
 117:test/../test/ConsumerProducer_CPP_Sync_API_test.hpp **** }
 2437              		.loc 2 117 1
 2438 0920 83308102 		ld	ra,40(sp)
 2439              		.cfi_restore 1
 2440 0924 03340102 		ld	s0,32(sp)
 2441              		.cfi_restore 8
 2442              		.cfi_def_cfa 2, 48
 2443 0928 83348101 		ld	s1,24(sp)
 2444              		.cfi_restore 9
 2445 092c 03390101 		ld	s2,16(sp)
 2446              		.cfi_restore 18
 2447              	.LVL248:
 2448 0930 83398100 		ld	s3,8(sp)
 2449              		.cfi_restore 19
 2450              	.LVL249:
 2451 0934 033A0100 		ld	s4,0(sp)
 2452              		.cfi_restore 20
 2453              	.LVL250:
 2454 0938 13010103 		addi	sp,sp,48
 2455              		.cfi_def_cfa_offset 0
 2456 093c 67800000 		jr	ra
 2457              		.cfi_endproc
 2458              	.LFE90:
 2460              		.section	.text._ZN8Consumer3runEv,"axG",@progbits,_ZN8Consumer3runEv,comdat
 2461              		.align	2
 2462              		.weak	_ZN8Consumer3runEv
 2464              	_ZN8Consumer3runEv:
 2465              	.LFB89:
  86:test/../test/ConsumerProducer_CPP_Sync_API_test.hpp ****         consumer(td);
 2466              		.loc 2 86 10 is_stmt 1
 2467              		.cfi_startproc
 2468              	.LVL251:
 2469 0000 130101FF 		addi	sp,sp,-16
GAS LISTING /tmp/ccxRZoB4.s 			page 58


 2470              		.cfi_def_cfa_offset 16
 2471 0004 23341100 		sd	ra,8(sp)
 2472 0008 23308100 		sd	s0,0(sp)
 2473              		.cfi_offset 1, -8
 2474              		.cfi_offset 8, -16
 2475 000c 13040101 		addi	s0,sp,16
 2476              		.cfi_def_cfa 8, 0
  87:test/../test/ConsumerProducer_CPP_Sync_API_test.hpp ****     }
 2477              		.loc 2 87 9
  87:test/../test/ConsumerProducer_CPP_Sync_API_test.hpp ****     }
 2478              		.loc 2 87 17 is_stmt 0
 2479 0010 83350501 		ld	a1,16(a0)
 2480 0014 97000000 		call	_ZN8Consumer8consumerEPv
 2480      E7800000 
 2481              	.LVL252:
  88:test/../test/ConsumerProducer_CPP_Sync_API_test.hpp **** };
 2482              		.loc 2 88 5
 2483 001c 83308100 		ld	ra,8(sp)
 2484              		.cfi_restore 1
 2485 0020 03340100 		ld	s0,0(sp)
 2486              		.cfi_restore 8
 2487              		.cfi_def_cfa 2, 16
 2488 0024 13010101 		addi	sp,sp,16
 2489              		.cfi_def_cfa_offset 0
 2490 0028 67800000 		jr	ra
 2491              		.cfi_endproc
 2492              	.LFE89:
 2494              		.section	.rodata.str1.8
 2495 0109 00000000 		.align	3
 2495      000000
 2496              	.LC20:
 2497 0110 556E6573 		.string	"Unesite broj proizvodjaca?\n"
 2497      69746520 
 2497      62726F6A 
 2497      2070726F 
 2497      697A766F 
 2498 012c 00000000 		.align	3
 2499              	.LC21:
 2500 0130 556E6573 		.string	"Unesite velicinu bafera?\n"
 2500      69746520 
 2500      76656C69 
 2500      63696E75 
 2500      20626166 
 2501 014a 00000000 		.align	3
 2501      0000
 2502              	.LC22:
 2503 0150 42726F6A 		.string	"Broj proizvodjaca "
 2503      2070726F 
 2503      697A766F 
 2503      646A6163 
 2503      612000
 2504 0163 00000000 		.align	3
 2504      00
 2505              	.LC23:
 2506 0168 20692076 		.string	" i velicina bafera "
 2506      656C6963 
 2506      696E6120 
GAS LISTING /tmp/ccxRZoB4.s 			page 59


 2506      62616665 
 2506      72612000 
 2507 017c 00000000 		.align	3
 2508              	.LC24:
 2509 0180 2E0A00   		.string	".\n"
 2510 0183 00000000 		.align	3
 2510      00
 2511              	.LC25:
 2512 0188 42726F6A 		.string	"Broj proizvodjaca ne sme biti manji od velicine bafera!\n"
 2512      2070726F 
 2512      697A766F 
 2512      646A6163 
 2512      61206E65 
 2513 01c1 00000000 		.align	3
 2513      000000
 2514              	.LC26:
 2515 01c8 42726F6A 		.string	"Broj proizvodjaca mora biti veci od nula!\n"
 2515      2070726F 
 2515      697A766F 
 2515      646A6163 
 2515      61206D6F 
 2516              		.text
 2517              		.align	2
 2518              		.globl	_Z29producerConsumer_CPP_Sync_APIv
 2520              	_Z29producerConsumer_CPP_Sync_APIv:
 2521              	.LFB91:
 118:test/../test/ConsumerProducer_CPP_Sync_API_test.hpp **** 
 119:test/../test/ConsumerProducer_CPP_Sync_API_test.hpp **** void producerConsumer_CPP_Sync_API() {
 2522              		.loc 2 119 38 is_stmt 1
 2523              		.cfi_startproc
 2524              		.cfi_personality 0x9b,DW.ref.__gxx_personality_v0
 2525              		.cfi_lsda 0x1b,.LLSDA91
 2526 0940 130101F9 		addi	sp,sp,-112
 2527              		.cfi_def_cfa_offset 112
 2528 0944 23341106 		sd	ra,104(sp)
 2529 0948 23308106 		sd	s0,96(sp)
 2530 094c 233C9104 		sd	s1,88(sp)
 2531 0950 23382105 		sd	s2,80(sp)
 2532 0954 23343105 		sd	s3,72(sp)
 2533 0958 23304105 		sd	s4,64(sp)
 2534 095c 233C5103 		sd	s5,56(sp)
 2535 0960 23386103 		sd	s6,48(sp)
 2536 0964 23347103 		sd	s7,40(sp)
 2537              		.cfi_offset 1, -8
 2538              		.cfi_offset 8, -16
 2539              		.cfi_offset 9, -24
 2540              		.cfi_offset 18, -32
 2541              		.cfi_offset 19, -40
 2542              		.cfi_offset 20, -48
 2543              		.cfi_offset 21, -56
 2544              		.cfi_offset 22, -64
 2545              		.cfi_offset 23, -72
 2546 0968 13040107 		addi	s0,sp,112
 2547              		.cfi_def_cfa 8, 0
 120:test/../test/ConsumerProducer_CPP_Sync_API_test.hpp ****     char input[30];
 121:test/../test/ConsumerProducer_CPP_Sync_API_test.hpp ****     int n, threadNum;
 122:test/../test/ConsumerProducer_CPP_Sync_API_test.hpp **** 
GAS LISTING /tmp/ccxRZoB4.s 			page 60


 123:test/../test/ConsumerProducer_CPP_Sync_API_test.hpp ****     printString("Unesite broj proizvodjaca?\n");
 124:test/../test/ConsumerProducer_CPP_Sync_API_test.hpp ****     getString(input, 30);
 125:test/../test/ConsumerProducer_CPP_Sync_API_test.hpp ****     threadNum = stringToInt(input);
 126:test/../test/ConsumerProducer_CPP_Sync_API_test.hpp **** 
 127:test/../test/ConsumerProducer_CPP_Sync_API_test.hpp ****     printString("Unesite velicinu bafera?\n");
 128:test/../test/ConsumerProducer_CPP_Sync_API_test.hpp ****     getString(input, 30);
 129:test/../test/ConsumerProducer_CPP_Sync_API_test.hpp ****     n = stringToInt(input);
 130:test/../test/ConsumerProducer_CPP_Sync_API_test.hpp **** 
 131:test/../test/ConsumerProducer_CPP_Sync_API_test.hpp ****     printString("Broj proizvodjaca "); printInt(threadNum);
 132:test/../test/ConsumerProducer_CPP_Sync_API_test.hpp ****     printString(" i velicina bafera "); printInt(n);
 133:test/../test/ConsumerProducer_CPP_Sync_API_test.hpp ****     printString(".\n");
 134:test/../test/ConsumerProducer_CPP_Sync_API_test.hpp **** 
 135:test/../test/ConsumerProducer_CPP_Sync_API_test.hpp ****     if(threadNum > n) {
 136:test/../test/ConsumerProducer_CPP_Sync_API_test.hpp ****         printString("Broj proizvodjaca ne sme biti manji od velicine bafera!\n");
 137:test/../test/ConsumerProducer_CPP_Sync_API_test.hpp ****         return;
 138:test/../test/ConsumerProducer_CPP_Sync_API_test.hpp ****     } else if (threadNum < 1) {
 139:test/../test/ConsumerProducer_CPP_Sync_API_test.hpp ****         printString("Broj proizvodjaca mora biti veci od nula!\n");
 140:test/../test/ConsumerProducer_CPP_Sync_API_test.hpp ****         return;
 141:test/../test/ConsumerProducer_CPP_Sync_API_test.hpp ****     }
 142:test/../test/ConsumerProducer_CPP_Sync_API_test.hpp **** 
 143:test/../test/ConsumerProducer_CPP_Sync_API_test.hpp ****     BufferCPP *buffer = new BufferCPP(n);
 144:test/../test/ConsumerProducer_CPP_Sync_API_test.hpp **** 
 145:test/../test/ConsumerProducer_CPP_Sync_API_test.hpp ****     waitForAll = new Semaphore(0);
 146:test/../test/ConsumerProducer_CPP_Sync_API_test.hpp **** 
 147:test/../test/ConsumerProducer_CPP_Sync_API_test.hpp ****     Thread* threads[threadNum];
 148:test/../test/ConsumerProducer_CPP_Sync_API_test.hpp ****     Thread* consumerThread;
 149:test/../test/ConsumerProducer_CPP_Sync_API_test.hpp **** 
 150:test/../test/ConsumerProducer_CPP_Sync_API_test.hpp ****     struct thread_data data[threadNum + 1];
 151:test/../test/ConsumerProducer_CPP_Sync_API_test.hpp **** 
 152:test/../test/ConsumerProducer_CPP_Sync_API_test.hpp ****     data[threadNum].id = threadNum;
 153:test/../test/ConsumerProducer_CPP_Sync_API_test.hpp ****     data[threadNum].buffer = buffer;
 154:test/../test/ConsumerProducer_CPP_Sync_API_test.hpp ****     data[threadNum].wait = waitForAll;
 155:test/../test/ConsumerProducer_CPP_Sync_API_test.hpp ****     consumerThread = new Consumer(data+threadNum);
 156:test/../test/ConsumerProducer_CPP_Sync_API_test.hpp ****     consumerThread->start();
 157:test/../test/ConsumerProducer_CPP_Sync_API_test.hpp **** 
 158:test/../test/ConsumerProducer_CPP_Sync_API_test.hpp ****     for (int i = 0; i < threadNum; i++) {
 159:test/../test/ConsumerProducer_CPP_Sync_API_test.hpp ****         data[i].id = i;
 160:test/../test/ConsumerProducer_CPP_Sync_API_test.hpp ****         data[i].buffer = buffer;
 161:test/../test/ConsumerProducer_CPP_Sync_API_test.hpp ****         data[i].wait = waitForAll;
 162:test/../test/ConsumerProducer_CPP_Sync_API_test.hpp **** 
 163:test/../test/ConsumerProducer_CPP_Sync_API_test.hpp ****         if(i>0) {
 164:test/../test/ConsumerProducer_CPP_Sync_API_test.hpp ****             threads[i] = new Producer(data+i);
 165:test/../test/ConsumerProducer_CPP_Sync_API_test.hpp ****         } else {
 166:test/../test/ConsumerProducer_CPP_Sync_API_test.hpp ****             threads[i] = new ProducerKeyboard(data+i);
 167:test/../test/ConsumerProducer_CPP_Sync_API_test.hpp ****         }
 168:test/../test/ConsumerProducer_CPP_Sync_API_test.hpp **** 
 169:test/../test/ConsumerProducer_CPP_Sync_API_test.hpp ****         threads[i]->start();
 170:test/../test/ConsumerProducer_CPP_Sync_API_test.hpp ****     }
 171:test/../test/ConsumerProducer_CPP_Sync_API_test.hpp **** 
 172:test/../test/ConsumerProducer_CPP_Sync_API_test.hpp **** 
 173:test/../test/ConsumerProducer_CPP_Sync_API_test.hpp ****     Thread::dispatch();
 174:test/../test/ConsumerProducer_CPP_Sync_API_test.hpp **** 
 175:test/../test/ConsumerProducer_CPP_Sync_API_test.hpp ****     for (int i = 0; i <= threadNum; i++) {
 176:test/../test/ConsumerProducer_CPP_Sync_API_test.hpp ****         waitForAll->wait();
 177:test/../test/ConsumerProducer_CPP_Sync_API_test.hpp ****     }
 178:test/../test/ConsumerProducer_CPP_Sync_API_test.hpp **** 
 179:test/../test/ConsumerProducer_CPP_Sync_API_test.hpp ****     for (int i = 0; i < threadNum; i++) {
GAS LISTING /tmp/ccxRZoB4.s 			page 61


 180:test/../test/ConsumerProducer_CPP_Sync_API_test.hpp ****         delete threads[i];
 181:test/../test/ConsumerProducer_CPP_Sync_API_test.hpp ****     }
 182:test/../test/ConsumerProducer_CPP_Sync_API_test.hpp ****     delete consumerThread;
 183:test/../test/ConsumerProducer_CPP_Sync_API_test.hpp ****     delete waitForAll;
 184:test/../test/ConsumerProducer_CPP_Sync_API_test.hpp ****     delete buffer;
 2548              		.loc 2 184 18 is_stmt 0
 2549 096c 930B0100 		mv	s7,sp
 120:test/../test/ConsumerProducer_CPP_Sync_API_test.hpp ****     char input[30];
 2550              		.loc 2 120 5 is_stmt 1
 121:test/../test/ConsumerProducer_CPP_Sync_API_test.hpp **** 
 2551              		.loc 2 121 5
 123:test/../test/ConsumerProducer_CPP_Sync_API_test.hpp ****     getString(input, 30);
 2552              		.loc 2 123 5
 123:test/../test/ConsumerProducer_CPP_Sync_API_test.hpp ****     getString(input, 30);
 2553              		.loc 2 123 16 is_stmt 0
 2554 0970 17050000 		lla	a0,.LC20
 2554      13050500 
 2555              	.LEHB0:
 2556 0978 97000000 		call	_Z11printStringPKc@plt
 2556      E7800000 
 2557              	.LVL253:
 124:test/../test/ConsumerProducer_CPP_Sync_API_test.hpp ****     threadNum = stringToInt(input);
 2558              		.loc 2 124 5 is_stmt 1
 124:test/../test/ConsumerProducer_CPP_Sync_API_test.hpp ****     threadNum = stringToInt(input);
 2559              		.loc 2 124 14 is_stmt 0
 2560 0980 9305E001 		li	a1,30
 2561 0984 930404F9 		addi	s1,s0,-112
 2562 0988 13850400 		mv	a0,s1
 2563 098c 97000000 		call	_Z9getStringPci@plt
 2563      E7800000 
 2564              	.LVL254:
 125:test/../test/ConsumerProducer_CPP_Sync_API_test.hpp **** 
 2565              		.loc 2 125 5 is_stmt 1
 125:test/../test/ConsumerProducer_CPP_Sync_API_test.hpp **** 
 2566              		.loc 2 125 28 is_stmt 0
 2567 0994 13850400 		mv	a0,s1
 2568 0998 97000000 		call	_Z11stringToIntPKc@plt
 2568      E7800000 
 2569              	.LVL255:
 2570 09a0 13090500 		mv	s2,a0
 2571              	.LVL256:
 127:test/../test/ConsumerProducer_CPP_Sync_API_test.hpp ****     getString(input, 30);
 2572              		.loc 2 127 5 is_stmt 1
 127:test/../test/ConsumerProducer_CPP_Sync_API_test.hpp ****     getString(input, 30);
 2573              		.loc 2 127 16 is_stmt 0
 2574 09a4 17050000 		lla	a0,.LC21
 2574      13050500 
 2575 09ac 97000000 		call	_Z11printStringPKc@plt
 2575      E7800000 
 2576              	.LVL257:
 128:test/../test/ConsumerProducer_CPP_Sync_API_test.hpp ****     n = stringToInt(input);
 2577              		.loc 2 128 5 is_stmt 1
 128:test/../test/ConsumerProducer_CPP_Sync_API_test.hpp ****     n = stringToInt(input);
 2578              		.loc 2 128 14 is_stmt 0
 2579 09b4 9305E001 		li	a1,30
 2580 09b8 13850400 		mv	a0,s1
 2581 09bc 97000000 		call	_Z9getStringPci@plt
GAS LISTING /tmp/ccxRZoB4.s 			page 62


 2581      E7800000 
 2582              	.LVL258:
 129:test/../test/ConsumerProducer_CPP_Sync_API_test.hpp **** 
 2583              		.loc 2 129 5 is_stmt 1
 129:test/../test/ConsumerProducer_CPP_Sync_API_test.hpp **** 
 2584              		.loc 2 129 20 is_stmt 0
 2585 09c4 13850400 		mv	a0,s1
 2586 09c8 97000000 		call	_Z11stringToIntPKc@plt
 2586      E7800000 
 2587              	.LVL259:
 2588 09d0 93040500 		mv	s1,a0
 2589              	.LVL260:
 131:test/../test/ConsumerProducer_CPP_Sync_API_test.hpp ****     printString(" i velicina bafera "); printInt(n);
 2590              		.loc 2 131 5 is_stmt 1
 131:test/../test/ConsumerProducer_CPP_Sync_API_test.hpp ****     printString(" i velicina bafera "); printInt(n);
 2591              		.loc 2 131 16 is_stmt 0
 2592 09d4 17050000 		lla	a0,.LC22
 2592      13050500 
 2593 09dc 97000000 		call	_Z11printStringPKc@plt
 2593      E7800000 
 2594              	.LVL261:
 131:test/../test/ConsumerProducer_CPP_Sync_API_test.hpp ****     printString(" i velicina bafera "); printInt(n);
 2595              		.loc 2 131 40 is_stmt 1
 131:test/../test/ConsumerProducer_CPP_Sync_API_test.hpp ****     printString(" i velicina bafera "); printInt(n);
 2596              		.loc 2 131 48 is_stmt 0
 2597 09e4 13060000 		li	a2,0
 2598 09e8 9305A000 		li	a1,10
 2599 09ec 13050900 		mv	a0,s2
 2600 09f0 97000000 		call	_Z8printIntiii@plt
 2600      E7800000 
 2601              	.LVL262:
 132:test/../test/ConsumerProducer_CPP_Sync_API_test.hpp ****     printString(".\n");
 2602              		.loc 2 132 5 is_stmt 1
 132:test/../test/ConsumerProducer_CPP_Sync_API_test.hpp ****     printString(".\n");
 2603              		.loc 2 132 16 is_stmt 0
 2604 09f8 17050000 		lla	a0,.LC23
 2604      13050500 
 2605 0a00 97000000 		call	_Z11printStringPKc@plt
 2605      E7800000 
 2606              	.LVL263:
 132:test/../test/ConsumerProducer_CPP_Sync_API_test.hpp ****     printString(".\n");
 2607              		.loc 2 132 41 is_stmt 1
 132:test/../test/ConsumerProducer_CPP_Sync_API_test.hpp ****     printString(".\n");
 2608              		.loc 2 132 49 is_stmt 0
 2609 0a08 13060000 		li	a2,0
 2610 0a0c 9305A000 		li	a1,10
 2611 0a10 13850400 		mv	a0,s1
 2612 0a14 97000000 		call	_Z8printIntiii@plt
 2612      E7800000 
 2613              	.LVL264:
 133:test/../test/ConsumerProducer_CPP_Sync_API_test.hpp **** 
 2614              		.loc 2 133 5 is_stmt 1
 133:test/../test/ConsumerProducer_CPP_Sync_API_test.hpp **** 
 2615              		.loc 2 133 16 is_stmt 0
 2616 0a1c 17050000 		lla	a0,.LC24
 2616      13050500 
 2617 0a24 97000000 		call	_Z11printStringPKc@plt
GAS LISTING /tmp/ccxRZoB4.s 			page 63


 2617      E7800000 
 2618              	.LVL265:
 135:test/../test/ConsumerProducer_CPP_Sync_API_test.hpp ****         printString("Broj proizvodjaca ne sme biti manji od velicine bafera!\n");
 2619              		.loc 2 135 5 is_stmt 1
 2620 0a2c 63C42403 		bgt	s2,s1,.L166
 138:test/../test/ConsumerProducer_CPP_Sync_API_test.hpp ****         printString("Broj proizvodjaca mora biti veci od nula!\n");
 2621              		.loc 2 138 12
 2622 0a30 635C2003 		blez	s2,.L167
 143:test/../test/ConsumerProducer_CPP_Sync_API_test.hpp **** 
 2623              		.loc 2 143 5
 143:test/../test/ConsumerProducer_CPP_Sync_API_test.hpp **** 
 2624              		.loc 2 143 40 is_stmt 0
 2625 0a34 13058003 		li	a0,56
 2626 0a38 97000000 		call	_ZN9BufferCPPnwEm@plt
 2626      E7800000 
 2627              	.LVL266:
 2628              	.LEHE0:
 2629 0a40 930A0500 		mv	s5,a0
 2630 0a44 93850400 		mv	a1,s1
 2631              	.LEHB1:
 2632 0a48 97000000 		call	_ZN9BufferCPPC1Ei@plt
 2632      E7800000 
 2633              	.LVL267:
 2634              	.LEHE1:
 2635 0a50 6F000003 		j	.L168
 2636              	.L166:
 136:test/../test/ConsumerProducer_CPP_Sync_API_test.hpp ****         return;
 2637              		.loc 2 136 9 is_stmt 1
 136:test/../test/ConsumerProducer_CPP_Sync_API_test.hpp ****         return;
 2638              		.loc 2 136 20 is_stmt 0
 2639 0a54 17050000 		lla	a0,.LC25
 2639      13050500 
 2640              	.LEHB2:
 2641 0a5c 97000000 		call	_Z11printStringPKc@plt
 2641      E7800000 
 2642              	.LVL268:
 137:test/../test/ConsumerProducer_CPP_Sync_API_test.hpp ****     } else if (threadNum < 1) {
 2643              		.loc 2 137 9 is_stmt 1
 2644 0a64 6F004001 		j	.L146
 2645              	.L167:
 139:test/../test/ConsumerProducer_CPP_Sync_API_test.hpp ****         return;
 2646              		.loc 2 139 9
 139:test/../test/ConsumerProducer_CPP_Sync_API_test.hpp ****         return;
 2647              		.loc 2 139 20 is_stmt 0
 2648 0a68 17050000 		lla	a0,.LC26
 2648      13050500 
 2649 0a70 97000000 		call	_Z11printStringPKc@plt
 2649      E7800000 
 2650              	.LVL269:
 140:test/../test/ConsumerProducer_CPP_Sync_API_test.hpp ****     }
 2651              		.loc 2 140 9 is_stmt 1
 2652              	.L146:
 2653 0a78 13810B00 		mv	sp,s7
 2654 0a7c 6F004022 		j	.L144
 2655              	.L168:
 2656              	.LVL270:
 145:test/../test/ConsumerProducer_CPP_Sync_API_test.hpp **** 
GAS LISTING /tmp/ccxRZoB4.s 			page 64


 2657              		.loc 2 145 5 discriminator 3
 145:test/../test/ConsumerProducer_CPP_Sync_API_test.hpp **** 
 2658              		.loc 2 145 33 is_stmt 0 discriminator 3
 2659 0a80 13050001 		li	a0,16
 2660 0a84 97000000 		call	_ZN9SemaphorenwEm@plt
 2660      E7800000 
 2661              	.LVL271:
 2662              	.LEHE2:
 2663 0a8c 93040500 		mv	s1,a0
 2664              	.LVL272:
 2665 0a90 93050000 		li	a1,0
 2666              	.LEHB3:
 2667 0a94 97000000 		call	_ZN9SemaphoreC1Ei@plt
 2667      E7800000 
 2668              	.LVL273:
 2669              	.LEHE3:
 145:test/../test/ConsumerProducer_CPP_Sync_API_test.hpp **** 
 2670              		.loc 2 145 16 discriminator 3
 2671 0a9c 17070000 		lla	a4,.LANCHOR0
 2671      13070700 
 2672 0aa4 23309702 		sd	s1,32(a4)
 147:test/../test/ConsumerProducer_CPP_Sync_API_test.hpp ****     Thread* consumerThread;
 2673              		.loc 2 147 5 is_stmt 1 discriminator 3
 2674              	.LVL274:
 147:test/../test/ConsumerProducer_CPP_Sync_API_test.hpp ****     Thread* consumerThread;
 2675              		.loc 2 147 13 is_stmt 0 discriminator 3
 2676 0aa8 93173900 		slli	a5,s2,3
 2677 0aac 9387F700 		addi	a5,a5,15
 2678 0ab0 93F707FF 		andi	a5,a5,-16
 2679 0ab4 3301F140 		sub	sp,sp,a5
 2680 0ab8 93090100 		mv	s3,sp
 2681              	.LVL275:
 148:test/../test/ConsumerProducer_CPP_Sync_API_test.hpp **** 
 2682              		.loc 2 148 5 is_stmt 1 discriminator 3
 150:test/../test/ConsumerProducer_CPP_Sync_API_test.hpp **** 
 2683              		.loc 2 150 5 discriminator 3
 150:test/../test/ConsumerProducer_CPP_Sync_API_test.hpp **** 
 2684              		.loc 2 150 39 is_stmt 0 discriminator 3
 2685 0abc 9B061900 		addiw	a3,s2,1
 2686              	.LVL276:
 150:test/../test/ConsumerProducer_CPP_Sync_API_test.hpp **** 
 2687              		.loc 2 150 24 discriminator 3
 2688 0ac0 93971600 		slli	a5,a3,1
 2689 0ac4 B387D700 		add	a5,a5,a3
 2690 0ac8 93973700 		slli	a5,a5,3
 2691 0acc 9387F700 		addi	a5,a5,15
 2692 0ad0 93F707FF 		andi	a5,a5,-16
 2693 0ad4 3301F140 		sub	sp,sp,a5
 2694              	.LVL277:
 2695 0ad8 130A0100 		mv	s4,sp
 2696              	.LVL278:
 152:test/../test/ConsumerProducer_CPP_Sync_API_test.hpp ****     data[threadNum].buffer = buffer;
 2697              		.loc 2 152 5 is_stmt 1 discriminator 3
 152:test/../test/ConsumerProducer_CPP_Sync_API_test.hpp ****     data[threadNum].buffer = buffer;
 2698              		.loc 2 152 24 is_stmt 0 discriminator 3
 2699 0adc 93141900 		slli	s1,s2,1
 2700 0ae0 B3872401 		add	a5,s1,s2
GAS LISTING /tmp/ccxRZoB4.s 			page 65


 2701 0ae4 93973700 		slli	a5,a5,3
 2702 0ae8 B307FA00 		add	a5,s4,a5
 2703 0aec 23A02701 		sw	s2,0(a5)
 153:test/../test/ConsumerProducer_CPP_Sync_API_test.hpp ****     data[threadNum].wait = waitForAll;
 2704              		.loc 2 153 5 is_stmt 1 discriminator 3
 153:test/../test/ConsumerProducer_CPP_Sync_API_test.hpp ****     data[threadNum].wait = waitForAll;
 2705              		.loc 2 153 28 is_stmt 0 discriminator 3
 2706 0af0 23B45701 		sd	s5,8(a5)
 154:test/../test/ConsumerProducer_CPP_Sync_API_test.hpp ****     consumerThread = new Consumer(data+threadNum);
 2707              		.loc 2 154 5 is_stmt 1 discriminator 3
 154:test/../test/ConsumerProducer_CPP_Sync_API_test.hpp ****     consumerThread = new Consumer(data+threadNum);
 2708              		.loc 2 154 26 is_stmt 0 discriminator 3
 2709 0af4 03370702 		ld	a4,32(a4)
 2710 0af8 23B8E700 		sd	a4,16(a5)
 155:test/../test/ConsumerProducer_CPP_Sync_API_test.hpp ****     consumerThread->start();
 2711              		.loc 2 155 5 is_stmt 1 discriminator 3
 155:test/../test/ConsumerProducer_CPP_Sync_API_test.hpp ****     consumerThread->start();
 2712              		.loc 2 155 49 is_stmt 0 discriminator 3
 2713 0afc 13058001 		li	a0,24
 2714              	.LEHB4:
 2715 0b00 97000000 		call	_ZN6ThreadnwEm@plt
 2715      E7800000 
 2716              	.LVL279:
 2717 0b08 130B0500 		mv	s6,a0
 155:test/../test/ConsumerProducer_CPP_Sync_API_test.hpp ****     consumerThread->start();
 2718              		.loc 2 155 39 discriminator 3
 2719 0b0c B3842401 		add	s1,s1,s2
 2720 0b10 93943400 		slli	s1,s1,3
 155:test/../test/ConsumerProducer_CPP_Sync_API_test.hpp ****     consumerThread->start();
 2721              		.loc 2 155 49 discriminator 3
 2722 0b14 B3049A00 		add	s1,s4,s1
 2723              	.LVL280:
 2724              	.LBB233:
 2725              	.LBB234:
 2726              	.LBB235:
 2727              	.LBB236:
 2728              		.loc 5 27 33 discriminator 3
 2729 0b18 23340500 		sd	zero,8(a0)
 2730              	.LVL281:
 2731              	.LBE236:
 2732              	.LBE235:
  84:test/../test/ConsumerProducer_CPP_Sync_API_test.hpp **** 
 2733              		.loc 2 84 48 discriminator 3
 2734 0b1c 97070000 		lla	a5,_ZTV8Consumer+16
 2734      93870700 
 2735 0b24 2330F500 		sd	a5,0(a0)
 2736 0b28 23389500 		sd	s1,16(a0)
 2737              	.LVL282:
 2738              	.LBE234:
 2739              	.LBE233:
 156:test/../test/ConsumerProducer_CPP_Sync_API_test.hpp **** 
 2740              		.loc 2 156 5 is_stmt 1 discriminator 3
 156:test/../test/ConsumerProducer_CPP_Sync_API_test.hpp **** 
 2741              		.loc 2 156 26 is_stmt 0 discriminator 3
 2742 0b2c 97000000 		call	_ZN6Thread5startEv@plt
 2742      E7800000 
 2743              	.LVL283:
GAS LISTING /tmp/ccxRZoB4.s 			page 66


 2744              	.LBB237:
 158:test/../test/ConsumerProducer_CPP_Sync_API_test.hpp ****         data[i].id = i;
 2745              		.loc 2 158 14 discriminator 3
 2746 0b34 93040000 		li	s1,0
 2747 0b38 6F008005 		j	.L151
 2748              	.LVL284:
 2749              	.L169:
 164:test/../test/ConsumerProducer_CPP_Sync_API_test.hpp ****         } else {
 2750              		.loc 2 164 13 is_stmt 1
 164:test/../test/ConsumerProducer_CPP_Sync_API_test.hpp ****         } else {
 2751              		.loc 2 164 45 is_stmt 0
 2752 0b3c 13058001 		li	a0,24
 2753 0b40 97000000 		call	_ZN6ThreadnwEm@plt
 2753      E7800000 
 2754              	.LVL285:
 164:test/../test/ConsumerProducer_CPP_Sync_API_test.hpp ****         } else {
 2755              		.loc 2 164 43
 2756 0b48 93971400 		slli	a5,s1,1
 2757 0b4c B3879700 		add	a5,a5,s1
 2758 0b50 93973700 		slli	a5,a5,3
 164:test/../test/ConsumerProducer_CPP_Sync_API_test.hpp ****         } else {
 2759              		.loc 2 164 45
 2760 0b54 B307FA00 		add	a5,s4,a5
 2761              	.LVL286:
 2762              	.LBB238:
 2763              	.LBB239:
 2764              	.LBB240:
 2765              	.LBB241:
 2766              		.loc 5 27 33
 2767 0b58 23340500 		sd	zero,8(a0)
 2768              	.LVL287:
 2769              	.LBE241:
 2770              	.LBE240:
  57:test/../test/ConsumerProducer_CPP_Sync_API_test.hpp **** 
 2771              		.loc 2 57 48
 2772 0b5c 17070000 		lla	a4,_ZTV8Producer+16
 2772      13070700 
 2773 0b64 2330E500 		sd	a4,0(a0)
 2774 0b68 2338F500 		sd	a5,16(a0)
 2775              	.LVL288:
 2776              	.LBE239:
 2777              	.LBE238:
 164:test/../test/ConsumerProducer_CPP_Sync_API_test.hpp ****         } else {
 2778              		.loc 2 164 24
 2779 0b6c 93973400 		slli	a5,s1,3
 2780 0b70 B387F900 		add	a5,s3,a5
 2781 0b74 23B0A700 		sd	a0,0(a5)
 2782              	.L150:
 169:test/../test/ConsumerProducer_CPP_Sync_API_test.hpp ****     }
 2783              		.loc 2 169 9 is_stmt 1
 169:test/../test/ConsumerProducer_CPP_Sync_API_test.hpp ****     }
 2784              		.loc 2 169 18 is_stmt 0
 2785 0b78 93973400 		slli	a5,s1,3
 2786 0b7c B387F900 		add	a5,s3,a5
 169:test/../test/ConsumerProducer_CPP_Sync_API_test.hpp ****     }
 2787              		.loc 2 169 26
 2788 0b80 03B50700 		ld	a0,0(a5)
GAS LISTING /tmp/ccxRZoB4.s 			page 67


 2789 0b84 97000000 		call	_ZN6Thread5startEv@plt
 2789      E7800000 
 2790              	.LVL289:
 158:test/../test/ConsumerProducer_CPP_Sync_API_test.hpp ****         data[i].id = i;
 2791              		.loc 2 158 5 is_stmt 1
 2792 0b8c 9B841400 		addiw	s1,s1,1
 2793              	.LVL290:
 2794              	.L151:
 158:test/../test/ConsumerProducer_CPP_Sync_API_test.hpp ****         data[i].id = i;
 2795              		.loc 2 158 23 discriminator 1
 2796 0b90 63D62407 		bge	s1,s2,.L148
 159:test/../test/ConsumerProducer_CPP_Sync_API_test.hpp ****         data[i].buffer = buffer;
 2797              		.loc 2 159 9
 159:test/../test/ConsumerProducer_CPP_Sync_API_test.hpp ****         data[i].buffer = buffer;
 2798              		.loc 2 159 20 is_stmt 0
 2799 0b94 93971400 		slli	a5,s1,1
 2800 0b98 B3879700 		add	a5,a5,s1
 2801 0b9c 93973700 		slli	a5,a5,3
 2802 0ba0 B307FA00 		add	a5,s4,a5
 2803 0ba4 23A09700 		sw	s1,0(a5)
 160:test/../test/ConsumerProducer_CPP_Sync_API_test.hpp ****         data[i].wait = waitForAll;
 2804              		.loc 2 160 9 is_stmt 1
 160:test/../test/ConsumerProducer_CPP_Sync_API_test.hpp ****         data[i].wait = waitForAll;
 2805              		.loc 2 160 24 is_stmt 0
 2806 0ba8 23B45701 		sd	s5,8(a5)
 161:test/../test/ConsumerProducer_CPP_Sync_API_test.hpp **** 
 2807              		.loc 2 161 9 is_stmt 1
 161:test/../test/ConsumerProducer_CPP_Sync_API_test.hpp **** 
 2808              		.loc 2 161 22 is_stmt 0
 2809 0bac 17070000 		ld	a4,.LANCHOR0+32
 2809      03370700 
 2810 0bb4 23B8E700 		sd	a4,16(a5)
 163:test/../test/ConsumerProducer_CPP_Sync_API_test.hpp ****             threads[i] = new Producer(data+i);
 2811              		.loc 2 163 9 is_stmt 1
 2812 0bb8 E34290F8 		bgtz	s1,.L169
 166:test/../test/ConsumerProducer_CPP_Sync_API_test.hpp ****         }
 2813              		.loc 2 166 13
 166:test/../test/ConsumerProducer_CPP_Sync_API_test.hpp ****         }
 2814              		.loc 2 166 53 is_stmt 0
 2815 0bbc 13058001 		li	a0,24
 2816 0bc0 97000000 		call	_ZN6ThreadnwEm@plt
 2816      E7800000 
 2817              	.LVL291:
 166:test/../test/ConsumerProducer_CPP_Sync_API_test.hpp ****         }
 2818              		.loc 2 166 51
 2819 0bc8 93971400 		slli	a5,s1,1
 2820 0bcc B3879700 		add	a5,a5,s1
 2821 0bd0 93973700 		slli	a5,a5,3
 166:test/../test/ConsumerProducer_CPP_Sync_API_test.hpp ****         }
 2822              		.loc 2 166 53
 2823 0bd4 B307FA00 		add	a5,s4,a5
 2824              	.LVL292:
 2825              	.LBB242:
 2826              	.LBB243:
 2827              	.LBB244:
 2828              	.LBB245:
 2829              		.loc 5 27 33
GAS LISTING /tmp/ccxRZoB4.s 			page 68


 2830 0bd8 23340500 		sd	zero,8(a0)
 2831              	.LVL293:
 2832              	.LBE245:
 2833              	.LBE244:
  26:test/../test/ConsumerProducer_CPP_Sync_API_test.hpp **** 
 2834              		.loc 2 26 56
 2835 0bdc 17070000 		lla	a4,_ZTV16ProducerKeyboard+16
 2835      13070700 
 2836 0be4 2330E500 		sd	a4,0(a0)
 2837 0be8 2338F500 		sd	a5,16(a0)
 2838              	.LVL294:
 2839              	.LBE243:
 2840              	.LBE242:
 166:test/../test/ConsumerProducer_CPP_Sync_API_test.hpp ****         }
 2841              		.loc 2 166 24
 2842 0bec 93973400 		slli	a5,s1,3
 2843 0bf0 B387F900 		add	a5,s3,a5
 2844 0bf4 23B0A700 		sd	a0,0(a5)
 2845 0bf8 6FF01FF8 		j	.L150
 2846              	.L148:
 2847              	.LBE237:
 173:test/../test/ConsumerProducer_CPP_Sync_API_test.hpp **** 
 2848              		.loc 2 173 5 is_stmt 1
 173:test/../test/ConsumerProducer_CPP_Sync_API_test.hpp **** 
 2849              		.loc 2 173 21 is_stmt 0
 2850 0bfc 97000000 		call	_ZN6Thread8dispatchEv@plt
 2850      E7800000 
 2851              	.LVL295:
 2852              	.LBB246:
 175:test/../test/ConsumerProducer_CPP_Sync_API_test.hpp ****         waitForAll->wait();
 2853              		.loc 2 175 14
 2854 0c04 93040000 		li	s1,0
 2855              	.LVL296:
 2856              	.L153:
 175:test/../test/ConsumerProducer_CPP_Sync_API_test.hpp ****         waitForAll->wait();
 2857              		.loc 2 175 23 is_stmt 1 discriminator 1
 2858 0c08 634E9900 		bgt	s1,s2,.L162
 176:test/../test/ConsumerProducer_CPP_Sync_API_test.hpp ****     }
 2859              		.loc 2 176 9
 176:test/../test/ConsumerProducer_CPP_Sync_API_test.hpp ****     }
 2860              		.loc 2 176 25 is_stmt 0
 2861 0c0c 17050000 		ld	a0,.LANCHOR0+32
 2861      03350500 
 2862 0c14 97000000 		call	_ZN9Semaphore4waitEv@plt
 2862      E7800000 
 2863              	.LVL297:
 175:test/../test/ConsumerProducer_CPP_Sync_API_test.hpp ****         waitForAll->wait();
 2864              		.loc 2 175 5 is_stmt 1
 2865 0c1c 9B841400 		addiw	s1,s1,1
 2866              	.LVL298:
 2867 0c20 6FF09FFE 		j	.L153
 2868              	.LVL299:
 2869              	.L162:
 2870              	.LBE246:
 2871              	.LBB247:
 179:test/../test/ConsumerProducer_CPP_Sync_API_test.hpp ****         delete threads[i];
 2872              		.loc 2 179 14 is_stmt 0
GAS LISTING /tmp/ccxRZoB4.s 			page 69


 2873 0c24 93040000 		li	s1,0
 2874              	.LVL300:
 2875 0c28 6F008000 		j	.L152
 2876              	.LVL301:
 2877              	.L155:
 179:test/../test/ConsumerProducer_CPP_Sync_API_test.hpp ****         delete threads[i];
 2878              		.loc 2 179 5 is_stmt 1 discriminator 2
 2879 0c2c 9B841400 		addiw	s1,s1,1
 2880              	.LVL302:
 2881              	.L152:
 179:test/../test/ConsumerProducer_CPP_Sync_API_test.hpp ****         delete threads[i];
 2882              		.loc 2 179 23 discriminator 1
 2883 0c30 63D22403 		bge	s1,s2,.L154
 180:test/../test/ConsumerProducer_CPP_Sync_API_test.hpp ****     }
 2884              		.loc 2 180 9
 180:test/../test/ConsumerProducer_CPP_Sync_API_test.hpp ****     }
 2885              		.loc 2 180 25 is_stmt 0
 2886 0c34 93973400 		slli	a5,s1,3
 2887 0c38 B387F900 		add	a5,s3,a5
 2888 0c3c 03B50700 		ld	a0,0(a5)
 180:test/../test/ConsumerProducer_CPP_Sync_API_test.hpp ****     }
 2889              		.loc 2 180 26
 2890 0c40 E30605FE 		beqz	a0,.L155
 180:test/../test/ConsumerProducer_CPP_Sync_API_test.hpp ****     }
 2891              		.loc 2 180 25 discriminator 1
 2892 0c44 83370500 		ld	a5,0(a0)
 2893 0c48 83B78700 		ld	a5,8(a5)
 2894 0c4c E7800700 		jalr	a5
 2895              	.LVL303:
 2896 0c50 6FF0DFFD 		j	.L155
 2897              	.L154:
 2898              	.LBE247:
 182:test/../test/ConsumerProducer_CPP_Sync_API_test.hpp ****     delete waitForAll;
 2899              		.loc 2 182 5 is_stmt 1
 182:test/../test/ConsumerProducer_CPP_Sync_API_test.hpp ****     delete waitForAll;
 2900              		.loc 2 182 26 is_stmt 0
 2901 0c54 630A0B00 		beqz	s6,.L156
 182:test/../test/ConsumerProducer_CPP_Sync_API_test.hpp ****     delete waitForAll;
 2902              		.loc 2 182 12 discriminator 1
 2903 0c58 83370B00 		ld	a5,0(s6)
 2904 0c5c 83B78700 		ld	a5,8(a5)
 2905 0c60 13050B00 		mv	a0,s6
 2906 0c64 E7800700 		jalr	a5
 2907              	.LVL304:
 2908              	.L156:
 183:test/../test/ConsumerProducer_CPP_Sync_API_test.hpp ****     delete buffer;
 2909              		.loc 2 183 5 is_stmt 1
 183:test/../test/ConsumerProducer_CPP_Sync_API_test.hpp ****     delete buffer;
 2910              		.loc 2 183 12 is_stmt 0
 2911 0c68 17050000 		ld	a0,.LANCHOR0+32
 2911      03350500 
 183:test/../test/ConsumerProducer_CPP_Sync_API_test.hpp ****     delete buffer;
 2912              		.loc 2 183 22
 2913 0c70 63080500 		beqz	a0,.L157
 183:test/../test/ConsumerProducer_CPP_Sync_API_test.hpp ****     delete buffer;
 2914              		.loc 2 183 12 discriminator 1
 2915 0c74 83370500 		ld	a5,0(a0)
GAS LISTING /tmp/ccxRZoB4.s 			page 70


 2916 0c78 83B78700 		ld	a5,8(a5)
 2917 0c7c E7800700 		jalr	a5
 2918              	.LVL305:
 2919              	.L157:
 2920              		.loc 2 184 5 is_stmt 1
 2921              		.loc 2 184 18 is_stmt 0
 2922 0c80 638E0A00 		beqz	s5,.L158
 2923              		.loc 2 184 12 discriminator 1
 2924 0c84 13850A00 		mv	a0,s5
 2925 0c88 97000000 		call	_ZN9BufferCPPD1Ev@plt
 2925      E7800000 
 2926              	.LVL306:
 2927 0c90 13850A00 		mv	a0,s5
 2928 0c94 97000000 		call	_ZN9BufferCPPdlEPv@plt
 2928      E7800000 
 2929              	.LVL307:
 2930              	.L158:
 2931 0c9c 13810B00 		mv	sp,s7
 2932              	.LVL308:
 2933              	.L144:
 185:test/../test/ConsumerProducer_CPP_Sync_API_test.hpp **** 
 186:test/../test/ConsumerProducer_CPP_Sync_API_test.hpp **** }
 2934              		.loc 2 186 1
 2935 0ca0 130104F9 		addi	sp,s0,-112
 2936              		.cfi_remember_state
 2937              		.cfi_def_cfa 2, 112
 2938 0ca4 83308106 		ld	ra,104(sp)
 2939              		.cfi_restore 1
 2940 0ca8 03340106 		ld	s0,96(sp)
 2941              		.cfi_restore 8
 2942 0cac 83348105 		ld	s1,88(sp)
 2943              		.cfi_restore 9
 2944 0cb0 03390105 		ld	s2,80(sp)
 2945              		.cfi_restore 18
 2946              	.LVL309:
 2947 0cb4 83398104 		ld	s3,72(sp)
 2948              		.cfi_restore 19
 2949 0cb8 033A0104 		ld	s4,64(sp)
 2950              		.cfi_restore 20
 2951 0cbc 833A8103 		ld	s5,56(sp)
 2952              		.cfi_restore 21
 2953 0cc0 033B0103 		ld	s6,48(sp)
 2954              		.cfi_restore 22
 2955 0cc4 833B8102 		ld	s7,40(sp)
 2956              		.cfi_restore 23
 2957 0cc8 13010107 		addi	sp,sp,112
 2958              		.cfi_def_cfa_offset 0
 2959 0ccc 67800000 		jr	ra
 2960              	.LVL310:
 2961              	.L163:
 2962              		.cfi_restore_state
 2963 0cd0 93040500 		mv	s1,a0
 2964              	.LVL311:
 143:test/../test/ConsumerProducer_CPP_Sync_API_test.hpp **** 
 2965              		.loc 2 143 40
 2966 0cd4 13850A00 		mv	a0,s5
 2967 0cd8 97000000 		call	_ZN9BufferCPPdlEPv@plt
GAS LISTING /tmp/ccxRZoB4.s 			page 71


 2967      E7800000 
 2968              	.LVL312:
 2969 0ce0 13850400 		mv	a0,s1
 2970 0ce4 97000000 		call	_Unwind_Resume@plt
 2970      E7800000 
 2971              	.LVL313:
 2972              	.L164:
 2973 0cec 13090500 		mv	s2,a0
 2974              	.LVL314:
 145:test/../test/ConsumerProducer_CPP_Sync_API_test.hpp **** 
 2975              		.loc 2 145 33
 2976 0cf0 13850400 		mv	a0,s1
 2977 0cf4 97000000 		call	_ZN9SemaphoredlEPv@plt
 2977      E7800000 
 2978              	.LVL315:
 2979 0cfc 13050900 		mv	a0,s2
 2980 0d00 97000000 		call	_Unwind_Resume@plt
 2980      E7800000 
 2981              	.LVL316:
 2982              	.LEHE4:
 2983              		.cfi_endproc
 2984              	.LFE91:
 2985              		.globl	__gxx_personality_v0
 2986              		.section	.gcc_except_table,"a",@progbits
 2987              	.LLSDA91:
 2988 0000 FF       		.byte	0xff
 2989 0001 FF       		.byte	0xff
 2990 0002 03       		.byte	0x3
 2991 0003 41       		.byte	0x41
 2992 0004 00000000 		.4byte	.LEHB0-.LFB91
 2993 0008 00000000 		.4byte	.LEHE0-.LEHB0
 2994 000c 00000000 		.4byte	0
 2995 0010 00       		.byte	0
 2996 0011 00000000 		.4byte	.LEHB1-.LFB91
 2997 0015 00000000 		.4byte	.LEHE1-.LEHB1
 2998 0019 00000000 		.4byte	.L163-.LFB91
 2999 001d 00       		.byte	0
 3000 001e 00000000 		.4byte	.LEHB2-.LFB91
 3001 0022 00000000 		.4byte	.LEHE2-.LEHB2
 3002 0026 00000000 		.4byte	0
 3003 002a 00       		.byte	0
 3004 002b 00000000 		.4byte	.LEHB3-.LFB91
 3005 002f 00000000 		.4byte	.LEHE3-.LEHB3
 3006 0033 00000000 		.4byte	.L164-.LFB91
 3007 0037 00       		.byte	0
 3008 0038 00000000 		.4byte	.LEHB4-.LFB91
 3009 003c 00000000 		.4byte	.LEHE4-.LEHB4
 3010 0040 00000000 		.4byte	0
 3011 0044 00       		.byte	0
 3012              		.text
 3014              		.align	2
 3015              		.globl	_Z12testSleepingv
 3017              	_Z12testSleepingv:
 3018              	.LFB93:
  26:test/../test/ThreadSleep_C_API_test.hpp **** 
  27:test/../test/ThreadSleep_C_API_test.hpp **** void testSleeping() {
 3019              		.loc 4 27 21 is_stmt 1
GAS LISTING /tmp/ccxRZoB4.s 			page 72


 3020              		.cfi_startproc
 3021 0d08 130101F5 		addi	sp,sp,-176
 3022              		.cfi_def_cfa_offset 176
 3023 0d0c 2334110A 		sd	ra,168(sp)
 3024 0d10 2330810A 		sd	s0,160(sp)
 3025 0d14 233C9108 		sd	s1,152(sp)
 3026              		.cfi_offset 1, -8
 3027              		.cfi_offset 8, -16
 3028              		.cfi_offset 9, -24
 3029 0d18 1304010B 		addi	s0,sp,176
 3030              		.cfi_def_cfa 8, 0
  28:test/../test/ThreadSleep_C_API_test.hpp ****     const int sleepy_thread_count = 9;
 3031              		.loc 4 28 5
 3032              	.LVL317:
  29:test/../test/ThreadSleep_C_API_test.hpp ****     time_t sleep_times[sleepy_thread_count] = {10, 20, 30, 40, 50, 60, 70, 80, 90};
 3033              		.loc 4 29 5
 3034              		.loc 4 29 12 is_stmt 0
 3035 0d1c 97070000 		lla	a5,.LANCHOR1
 3035      93870700 
 3036 0d24 03B30700 		ld	t1,0(a5)
 3037 0d28 83B88700 		ld	a7,8(a5)
 3038 0d2c 03B80701 		ld	a6,16(a5)
 3039 0d30 03B58701 		ld	a0,24(a5)
 3040 0d34 83B50702 		ld	a1,32(a5)
 3041 0d38 03B68702 		ld	a2,40(a5)
 3042 0d3c 83B60703 		ld	a3,48(a5)
 3043 0d40 03B78703 		ld	a4,56(a5)
 3044 0d44 83B70704 		ld	a5,64(a5)
 3045 0d48 233C64F8 		sd	t1,-104(s0)
 3046 0d4c 233014FB 		sd	a7,-96(s0)
 3047 0d50 233404FB 		sd	a6,-88(s0)
 3048 0d54 2338A4FA 		sd	a0,-80(s0)
 3049 0d58 233CB4FA 		sd	a1,-72(s0)
 3050 0d5c 2330C4FC 		sd	a2,-64(s0)
 3051 0d60 2334D4FC 		sd	a3,-56(s0)
 3052 0d64 2338E4FC 		sd	a4,-48(s0)
 3053 0d68 233CF4FC 		sd	a5,-40(s0)
  30:test/../test/ThreadSleep_C_API_test.hpp ****     thread_t sleepyThread[sleepy_thread_count];
 3054              		.loc 4 30 5 is_stmt 1
  31:test/../test/ThreadSleep_C_API_test.hpp **** 
  32:test/../test/ThreadSleep_C_API_test.hpp ****     for (int i = 0; i < sleepy_thread_count; i++) {
 3055              		.loc 4 32 5
 3056              	.LVL318:
 3057              	.LBB248:
 3058              		.loc 4 32 14 is_stmt 0
 3059 0d6c 93040000 		li	s1,0
 3060              	.LVL319:
 3061              	.L172:
 3062              		.loc 4 32 23 is_stmt 1 discriminator 1
 3063 0d70 93078000 		li	a5,8
 3064 0d74 63C89702 		bgt	s1,a5,.L173
  33:test/../test/ThreadSleep_C_API_test.hpp ****         thread_create(&sleepyThread[i], sleepyRun, sleep_times + i);
 3065              		.loc 4 33 9
 3066              		.loc 4 33 64 is_stmt 0
 3067 0d78 93973400 		slli	a5,s1,3
 3068              		.loc 4 33 22
 3069 0d7c 130684F9 		addi	a2,s0,-104
GAS LISTING /tmp/ccxRZoB4.s 			page 73


 3070 0d80 3306F600 		add	a2,a2,a5
 3071 0d84 97050000 		lla	a1,_Z9sleepyRunPv
 3071      93850500 
 3072 0d8c 130504F5 		addi	a0,s0,-176
 3073 0d90 3305F500 		add	a0,a0,a5
 3074 0d94 97000000 		call	_Z13thread_createPP3TCBPFvPvES2_@plt
 3074      E7800000 
 3075              	.LVL320:
  32:test/../test/ThreadSleep_C_API_test.hpp ****         thread_create(&sleepyThread[i], sleepyRun, sleep_times + i);
 3076              		.loc 4 32 5 is_stmt 1
 3077 0d9c 9B841400 		addiw	s1,s1,1
 3078              	.LVL321:
 3079 0da0 6FF01FFD 		j	.L172
 3080              	.LVL322:
 3081              	.L173:
 3082              	.LBE248:
  34:test/../test/ThreadSleep_C_API_test.hpp ****     }
  35:test/../test/ThreadSleep_C_API_test.hpp **** 
  36:test/../test/ThreadSleep_C_API_test.hpp ****     while (!(finished[0] && finished[1] && finished[2] && finished[3] && finished[4] && finished[5]
 3083              		.loc 4 36 5
 3084              		.loc 4 36 12
 3085              		.loc 4 36 24 is_stmt 0
 3086 0da4 97070000 		lbu	a5,.LANCHOR0+8
 3086      83C70700 
 3087              		.loc 4 36 12
 3088 0dac E38C07FE 		beqz	a5,.L173
 3089              		.loc 4 36 39 discriminator 1
 3090 0db0 97070000 		lbu	a5,.LANCHOR0+9
 3090      83C70700 
 3091              		.loc 4 36 26 discriminator 1
 3092 0db8 E38607FE 		beqz	a5,.L173
 3093              		.loc 4 36 54 discriminator 2
 3094 0dbc 97070000 		lbu	a5,.LANCHOR0+10
 3094      83C70700 
 3095              		.loc 4 36 41 discriminator 2
 3096 0dc4 E38007FE 		beqz	a5,.L173
 3097              		.loc 4 36 69 discriminator 3
 3098 0dc8 97070000 		lbu	a5,.LANCHOR0+11
 3098      83C70700 
 3099              		.loc 4 36 56 discriminator 3
 3100 0dd0 E38A07FC 		beqz	a5,.L173
 3101              		.loc 4 36 84 discriminator 4
 3102 0dd4 97070000 		lbu	a5,.LANCHOR0+12
 3102      83C70700 
 3103              		.loc 4 36 71 discriminator 4
 3104 0ddc E38407FC 		beqz	a5,.L173
 3105              		.loc 4 36 99 discriminator 5
 3106 0de0 97070000 		lbu	a5,.LANCHOR0+13
 3106      83C70700 
 3107              		.loc 4 36 86 discriminator 5
 3108 0de8 E38E07FA 		beqz	a5,.L173
 3109              		.loc 4 36 114 discriminator 6
 3110 0dec 97070000 		lbu	a5,.LANCHOR0+14
 3110      83C70700 
 3111              		.loc 4 36 101 discriminator 6
 3112 0df4 E38807FA 		beqz	a5,.L173
 3113              		.loc 4 36 129 discriminator 7
GAS LISTING /tmp/ccxRZoB4.s 			page 74


 3114 0df8 97070000 		lbu	a5,.LANCHOR0+15
 3114      83C70700 
 3115              		.loc 4 36 116 discriminator 7
 3116 0e00 E38207FA 		beqz	a5,.L173
 3117              		.loc 4 36 144 discriminator 8
 3118 0e04 97070000 		lbu	a5,.LANCHOR0+16
 3118      83C70700 
 3119              		.loc 4 36 12 discriminator 8
 3120 0e0c E38C07F8 		beqz	a5,.L173
  37:test/../test/ThreadSleep_C_API_test.hpp **** }
 3121              		.loc 4 37 1
 3122 0e10 8330810A 		ld	ra,168(sp)
 3123              		.cfi_restore 1
 3124 0e14 0334010A 		ld	s0,160(sp)
 3125              		.cfi_restore 8
 3126              		.cfi_def_cfa 2, 176
 3127 0e18 83348109 		ld	s1,152(sp)
 3128              		.cfi_restore 9
 3129              	.LVL323:
 3130 0e1c 1301010B 		addi	sp,sp,176
 3131              		.cfi_def_cfa_offset 0
 3132 0e20 67800000 		jr	ra
 3133              		.cfi_endproc
 3134              	.LFE93:
 3136              		.align	2
 3137              		.globl	_ZN19ConsumerProducerCPP20testConsumerProducerEv
 3139              	_ZN19ConsumerProducerCPP20testConsumerProducerEv:
 3140              	.LFB106:
  89:test/../test/ConsumerProducer_CPP_API_test.hpp ****     };
  90:test/../test/ConsumerProducer_CPP_API_test.hpp **** 
  91:test/../test/ConsumerProducer_CPP_API_test.hpp ****     void testConsumerProducer() {
 3141              		.loc 1 91 33 is_stmt 1
 3142              		.cfi_startproc
 3143              		.cfi_personality 0x9b,DW.ref.__gxx_personality_v0
 3144              		.cfi_lsda 0x1b,.LLSDA106
 3145 0e24 130101F9 		addi	sp,sp,-112
 3146              		.cfi_def_cfa_offset 112
 3147 0e28 23341106 		sd	ra,104(sp)
 3148 0e2c 23308106 		sd	s0,96(sp)
 3149 0e30 233C9104 		sd	s1,88(sp)
 3150 0e34 23382105 		sd	s2,80(sp)
 3151 0e38 23343105 		sd	s3,72(sp)
 3152 0e3c 23304105 		sd	s4,64(sp)
 3153 0e40 233C5103 		sd	s5,56(sp)
 3154 0e44 23386103 		sd	s6,48(sp)
 3155 0e48 23347103 		sd	s7,40(sp)
 3156 0e4c 23308103 		sd	s8,32(sp)
 3157              		.cfi_offset 1, -8
 3158              		.cfi_offset 8, -16
 3159              		.cfi_offset 9, -24
 3160              		.cfi_offset 18, -32
 3161              		.cfi_offset 19, -40
 3162              		.cfi_offset 20, -48
 3163              		.cfi_offset 21, -56
 3164              		.cfi_offset 22, -64
 3165              		.cfi_offset 23, -72
 3166              		.cfi_offset 24, -80
GAS LISTING /tmp/ccxRZoB4.s 			page 75


 3167 0e50 13040107 		addi	s0,sp,112
 3168              		.cfi_def_cfa 8, 0
  92:test/../test/ConsumerProducer_CPP_API_test.hpp ****         char input[30];
  93:test/../test/ConsumerProducer_CPP_API_test.hpp ****         int n, threadNum;
  94:test/../test/ConsumerProducer_CPP_API_test.hpp **** 
  95:test/../test/ConsumerProducer_CPP_API_test.hpp ****         printString("Unesite broj proizvodjaca?\n");
  96:test/../test/ConsumerProducer_CPP_API_test.hpp ****         getString(input, 30);
  97:test/../test/ConsumerProducer_CPP_API_test.hpp ****         threadNum = stringToInt(input);
  98:test/../test/ConsumerProducer_CPP_API_test.hpp **** 
  99:test/../test/ConsumerProducer_CPP_API_test.hpp ****         printString("Unesite velicinu bafera?\n");
 100:test/../test/ConsumerProducer_CPP_API_test.hpp ****         getString(input, 30);
 101:test/../test/ConsumerProducer_CPP_API_test.hpp ****         n = stringToInt(input);
 102:test/../test/ConsumerProducer_CPP_API_test.hpp **** 
 103:test/../test/ConsumerProducer_CPP_API_test.hpp **** 
 104:test/../test/ConsumerProducer_CPP_API_test.hpp ****         printString("Broj proizvodjaca "); printInt(threadNum);
 105:test/../test/ConsumerProducer_CPP_API_test.hpp ****         printString(" i velicina bafera "); printInt(n);
 106:test/../test/ConsumerProducer_CPP_API_test.hpp ****         printString(".\n");
 107:test/../test/ConsumerProducer_CPP_API_test.hpp **** 
 108:test/../test/ConsumerProducer_CPP_API_test.hpp ****         if(threadNum > n) {
 109:test/../test/ConsumerProducer_CPP_API_test.hpp ****             printString("Broj proizvodjaca ne sme biti manji od velicine bafera!\n");
 110:test/../test/ConsumerProducer_CPP_API_test.hpp ****             return;
 111:test/../test/ConsumerProducer_CPP_API_test.hpp ****         } else if (threadNum < 1) {
 112:test/../test/ConsumerProducer_CPP_API_test.hpp ****             printString("Broj proizvodjaca mora biti veci od nula!\n");
 113:test/../test/ConsumerProducer_CPP_API_test.hpp ****             return;
 114:test/../test/ConsumerProducer_CPP_API_test.hpp ****         }
 115:test/../test/ConsumerProducer_CPP_API_test.hpp **** 
 116:test/../test/ConsumerProducer_CPP_API_test.hpp ****         BufferCPP *buffer = new BufferCPP(n);
 117:test/../test/ConsumerProducer_CPP_API_test.hpp **** 
 118:test/../test/ConsumerProducer_CPP_API_test.hpp ****         waitForAll = new Semaphore(0);
 119:test/../test/ConsumerProducer_CPP_API_test.hpp ****         Thread *producers[threadNum];
 120:test/../test/ConsumerProducer_CPP_API_test.hpp ****         thread_data threadData[threadNum + 1];
 121:test/../test/ConsumerProducer_CPP_API_test.hpp **** 
 122:test/../test/ConsumerProducer_CPP_API_test.hpp ****         threadData[threadNum].id = threadNum;
 123:test/../test/ConsumerProducer_CPP_API_test.hpp ****         threadData[threadNum].buffer = buffer;
 124:test/../test/ConsumerProducer_CPP_API_test.hpp ****         threadData[threadNum].sem = waitForAll;
 125:test/../test/ConsumerProducer_CPP_API_test.hpp ****         Thread *consumer = new Consumer(&threadData[threadNum]);
 126:test/../test/ConsumerProducer_CPP_API_test.hpp ****         consumer->start();
 127:test/../test/ConsumerProducer_CPP_API_test.hpp **** 
 128:test/../test/ConsumerProducer_CPP_API_test.hpp ****         threadData[0].id = 0;
 129:test/../test/ConsumerProducer_CPP_API_test.hpp ****         threadData[0].buffer = buffer;
 130:test/../test/ConsumerProducer_CPP_API_test.hpp ****         threadData[0].sem = waitForAll;
 131:test/../test/ConsumerProducer_CPP_API_test.hpp ****         producers[0] = new ProducerKeyborad(&threadData[0]);
 132:test/../test/ConsumerProducer_CPP_API_test.hpp ****         producers[0]->start();
 133:test/../test/ConsumerProducer_CPP_API_test.hpp **** 
 134:test/../test/ConsumerProducer_CPP_API_test.hpp ****         for (int i = 1; i < threadNum; i++) {
 135:test/../test/ConsumerProducer_CPP_API_test.hpp ****             threadData[i].id = i;
 136:test/../test/ConsumerProducer_CPP_API_test.hpp ****             threadData[i].buffer = buffer;
 137:test/../test/ConsumerProducer_CPP_API_test.hpp ****             threadData[i].sem = waitForAll;
 138:test/../test/ConsumerProducer_CPP_API_test.hpp **** 
 139:test/../test/ConsumerProducer_CPP_API_test.hpp ****             producers[i] = new Producer(&threadData[i]);
 140:test/../test/ConsumerProducer_CPP_API_test.hpp ****             producers[i]->start();
 141:test/../test/ConsumerProducer_CPP_API_test.hpp **** 
 142:test/../test/ConsumerProducer_CPP_API_test.hpp ****         }
 143:test/../test/ConsumerProducer_CPP_API_test.hpp **** 
 144:test/../test/ConsumerProducer_CPP_API_test.hpp ****         Thread::dispatch();
 145:test/../test/ConsumerProducer_CPP_API_test.hpp **** 
 146:test/../test/ConsumerProducer_CPP_API_test.hpp ****         for (int i = 0; i <= threadNum; i++) {
GAS LISTING /tmp/ccxRZoB4.s 			page 76


 147:test/../test/ConsumerProducer_CPP_API_test.hpp ****             waitForAll->wait();
 148:test/../test/ConsumerProducer_CPP_API_test.hpp ****         }
 149:test/../test/ConsumerProducer_CPP_API_test.hpp **** 
 150:test/../test/ConsumerProducer_CPP_API_test.hpp ****         delete waitForAll;
 151:test/../test/ConsumerProducer_CPP_API_test.hpp ****         for (int i = 0; i < threadNum; i++) {
 152:test/../test/ConsumerProducer_CPP_API_test.hpp ****             delete producers[i];
 153:test/../test/ConsumerProducer_CPP_API_test.hpp ****         }
 154:test/../test/ConsumerProducer_CPP_API_test.hpp ****         delete consumer;
 155:test/../test/ConsumerProducer_CPP_API_test.hpp ****         delete buffer;
 3169              		.loc 1 155 22 is_stmt 0
 3170 0e54 130C0100 		mv	s8,sp
  92:test/../test/ConsumerProducer_CPP_API_test.hpp ****         char input[30];
 3171              		.loc 1 92 9 is_stmt 1
  93:test/../test/ConsumerProducer_CPP_API_test.hpp **** 
 3172              		.loc 1 93 9
  95:test/../test/ConsumerProducer_CPP_API_test.hpp ****         getString(input, 30);
 3173              		.loc 1 95 9
  95:test/../test/ConsumerProducer_CPP_API_test.hpp ****         getString(input, 30);
 3174              		.loc 1 95 20 is_stmt 0
 3175 0e58 17050000 		lla	a0,.LC20
 3175      13050500 
 3176              	.LEHB5:
 3177 0e60 97000000 		call	_Z11printStringPKc@plt
 3177      E7800000 
 3178              	.LVL324:
  96:test/../test/ConsumerProducer_CPP_API_test.hpp ****         threadNum = stringToInt(input);
 3179              		.loc 1 96 9 is_stmt 1
  96:test/../test/ConsumerProducer_CPP_API_test.hpp ****         threadNum = stringToInt(input);
 3180              		.loc 1 96 18 is_stmt 0
 3181 0e68 9305E001 		li	a1,30
 3182 0e6c 930404F9 		addi	s1,s0,-112
 3183 0e70 13850400 		mv	a0,s1
 3184 0e74 97000000 		call	_Z9getStringPci@plt
 3184      E7800000 
 3185              	.LVL325:
  97:test/../test/ConsumerProducer_CPP_API_test.hpp **** 
 3186              		.loc 1 97 9 is_stmt 1
  97:test/../test/ConsumerProducer_CPP_API_test.hpp **** 
 3187              		.loc 1 97 32 is_stmt 0
 3188 0e7c 13850400 		mv	a0,s1
 3189 0e80 97000000 		call	_Z11stringToIntPKc@plt
 3189      E7800000 
 3190              	.LVL326:
 3191 0e88 93090500 		mv	s3,a0
 3192              	.LVL327:
  99:test/../test/ConsumerProducer_CPP_API_test.hpp ****         getString(input, 30);
 3193              		.loc 1 99 9 is_stmt 1
  99:test/../test/ConsumerProducer_CPP_API_test.hpp ****         getString(input, 30);
 3194              		.loc 1 99 20 is_stmt 0
 3195 0e8c 17050000 		lla	a0,.LC21
 3195      13050500 
 3196 0e94 97000000 		call	_Z11printStringPKc@plt
 3196      E7800000 
 3197              	.LVL328:
 100:test/../test/ConsumerProducer_CPP_API_test.hpp ****         n = stringToInt(input);
 3198              		.loc 1 100 9 is_stmt 1
 100:test/../test/ConsumerProducer_CPP_API_test.hpp ****         n = stringToInt(input);
GAS LISTING /tmp/ccxRZoB4.s 			page 77


 3199              		.loc 1 100 18 is_stmt 0
 3200 0e9c 9305E001 		li	a1,30
 3201 0ea0 13850400 		mv	a0,s1
 3202 0ea4 97000000 		call	_Z9getStringPci@plt
 3202      E7800000 
 3203              	.LVL329:
 101:test/../test/ConsumerProducer_CPP_API_test.hpp **** 
 3204              		.loc 1 101 9 is_stmt 1
 101:test/../test/ConsumerProducer_CPP_API_test.hpp **** 
 3205              		.loc 1 101 24 is_stmt 0
 3206 0eac 13850400 		mv	a0,s1
 3207 0eb0 97000000 		call	_Z11stringToIntPKc@plt
 3207      E7800000 
 3208              	.LVL330:
 3209 0eb8 93040500 		mv	s1,a0
 3210              	.LVL331:
 104:test/../test/ConsumerProducer_CPP_API_test.hpp ****         printString(" i velicina bafera "); printInt(n);
 3211              		.loc 1 104 9 is_stmt 1
 104:test/../test/ConsumerProducer_CPP_API_test.hpp ****         printString(" i velicina bafera "); printInt(n);
 3212              		.loc 1 104 20 is_stmt 0
 3213 0ebc 17050000 		lla	a0,.LC22
 3213      13050500 
 3214 0ec4 97000000 		call	_Z11printStringPKc@plt
 3214      E7800000 
 3215              	.LVL332:
 104:test/../test/ConsumerProducer_CPP_API_test.hpp ****         printString(" i velicina bafera "); printInt(n);
 3216              		.loc 1 104 44 is_stmt 1
 104:test/../test/ConsumerProducer_CPP_API_test.hpp ****         printString(" i velicina bafera "); printInt(n);
 3217              		.loc 1 104 52 is_stmt 0
 3218 0ecc 13060000 		li	a2,0
 3219 0ed0 9305A000 		li	a1,10
 3220 0ed4 13850900 		mv	a0,s3
 3221 0ed8 97000000 		call	_Z8printIntiii@plt
 3221      E7800000 
 3222              	.LVL333:
 105:test/../test/ConsumerProducer_CPP_API_test.hpp ****         printString(".\n");
 3223              		.loc 1 105 9 is_stmt 1
 105:test/../test/ConsumerProducer_CPP_API_test.hpp ****         printString(".\n");
 3224              		.loc 1 105 20 is_stmt 0
 3225 0ee0 17050000 		lla	a0,.LC23
 3225      13050500 
 3226 0ee8 97000000 		call	_Z11printStringPKc@plt
 3226      E7800000 
 3227              	.LVL334:
 105:test/../test/ConsumerProducer_CPP_API_test.hpp ****         printString(".\n");
 3228              		.loc 1 105 45 is_stmt 1
 105:test/../test/ConsumerProducer_CPP_API_test.hpp ****         printString(".\n");
 3229              		.loc 1 105 53 is_stmt 0
 3230 0ef0 13060000 		li	a2,0
 3231 0ef4 9305A000 		li	a1,10
 3232 0ef8 13850400 		mv	a0,s1
 3233 0efc 97000000 		call	_Z8printIntiii@plt
 3233      E7800000 
 3234              	.LVL335:
 106:test/../test/ConsumerProducer_CPP_API_test.hpp **** 
 3235              		.loc 1 106 9 is_stmt 1
 106:test/../test/ConsumerProducer_CPP_API_test.hpp **** 
GAS LISTING /tmp/ccxRZoB4.s 			page 78


 3236              		.loc 1 106 20 is_stmt 0
 3237 0f04 17050000 		lla	a0,.LC24
 3237      13050500 
 3238 0f0c 97000000 		call	_Z11printStringPKc@plt
 3238      E7800000 
 3239              	.LVL336:
 108:test/../test/ConsumerProducer_CPP_API_test.hpp ****             printString("Broj proizvodjaca ne sme biti manji od velicine bafera!\n");
 3240              		.loc 1 108 9 is_stmt 1
 3241 0f14 63C43403 		bgt	s3,s1,.L202
 111:test/../test/ConsumerProducer_CPP_API_test.hpp ****             printString("Broj proizvodjaca mora biti veci od nula!\n");
 3242              		.loc 1 111 16
 3243 0f18 635C3003 		blez	s3,.L203
 116:test/../test/ConsumerProducer_CPP_API_test.hpp **** 
 3244              		.loc 1 116 9
 116:test/../test/ConsumerProducer_CPP_API_test.hpp **** 
 3245              		.loc 1 116 44 is_stmt 0
 3246 0f1c 13058003 		li	a0,56
 3247 0f20 97000000 		call	_ZN9BufferCPPnwEm@plt
 3247      E7800000 
 3248              	.LVL337:
 3249              	.LEHE5:
 3250 0f28 930A0500 		mv	s5,a0
 3251 0f2c 93850400 		mv	a1,s1
 3252              	.LEHB6:
 3253 0f30 97000000 		call	_ZN9BufferCPPC1Ei@plt
 3253      E7800000 
 3254              	.LVL338:
 3255              	.LEHE6:
 3256 0f38 6F000003 		j	.L204
 3257              	.L202:
 109:test/../test/ConsumerProducer_CPP_API_test.hpp ****             return;
 3258              		.loc 1 109 13 is_stmt 1
 109:test/../test/ConsumerProducer_CPP_API_test.hpp ****             return;
 3259              		.loc 1 109 24 is_stmt 0
 3260 0f3c 17050000 		lla	a0,.LC25
 3260      13050500 
 3261              	.LEHB7:
 3262 0f44 97000000 		call	_Z11printStringPKc@plt
 3262      E7800000 
 3263              	.LVL339:
 110:test/../test/ConsumerProducer_CPP_API_test.hpp ****         } else if (threadNum < 1) {
 3264              		.loc 1 110 13 is_stmt 1
 3265 0f4c 6F004001 		j	.L184
 3266              	.L203:
 112:test/../test/ConsumerProducer_CPP_API_test.hpp ****             return;
 3267              		.loc 1 112 13
 112:test/../test/ConsumerProducer_CPP_API_test.hpp ****             return;
 3268              		.loc 1 112 24 is_stmt 0
 3269 0f50 17050000 		lla	a0,.LC26
 3269      13050500 
 3270 0f58 97000000 		call	_Z11printStringPKc@plt
 3270      E7800000 
 3271              	.LVL340:
 113:test/../test/ConsumerProducer_CPP_API_test.hpp ****         }
 3272              		.loc 1 113 13 is_stmt 1
 3273              	.L184:
 3274 0f60 13010C00 		mv	sp,s8
GAS LISTING /tmp/ccxRZoB4.s 			page 79


 3275 0f64 6F00401F 		j	.L182
 3276              	.L204:
 3277              	.LVL341:
 118:test/../test/ConsumerProducer_CPP_API_test.hpp ****         Thread *producers[threadNum];
 3278              		.loc 1 118 9 discriminator 3
 118:test/../test/ConsumerProducer_CPP_API_test.hpp ****         Thread *producers[threadNum];
 3279              		.loc 1 118 37 is_stmt 0 discriminator 3
 3280 0f68 13050001 		li	a0,16
 3281 0f6c 97000000 		call	_ZN9SemaphorenwEm@plt
 3281      E7800000 
 3282              	.LVL342:
 3283              	.LEHE7:
 3284 0f74 93040500 		mv	s1,a0
 3285              	.LVL343:
 3286 0f78 93050000 		li	a1,0
 3287              	.LEHB8:
 3288 0f7c 97000000 		call	_ZN9SemaphoreC1Ei@plt
 3288      E7800000 
 3289              	.LVL344:
 3290              	.LEHE8:
 118:test/../test/ConsumerProducer_CPP_API_test.hpp ****         Thread *producers[threadNum];
 3291              		.loc 1 118 20 discriminator 3
 3292 0f84 17090000 		lla	s2,.LANCHOR0
 3292      13090900 
 3293 0f8c 23349902 		sd	s1,40(s2)
 119:test/../test/ConsumerProducer_CPP_API_test.hpp ****         thread_data threadData[threadNum + 1];
 3294              		.loc 1 119 9 is_stmt 1 discriminator 3
 3295              	.LVL345:
 119:test/../test/ConsumerProducer_CPP_API_test.hpp ****         thread_data threadData[threadNum + 1];
 3296              		.loc 1 119 17 is_stmt 0 discriminator 3
 3297 0f90 93973900 		slli	a5,s3,3
 3298 0f94 9387F700 		addi	a5,a5,15
 3299 0f98 93F707FF 		andi	a5,a5,-16
 3300 0f9c 3301F140 		sub	sp,sp,a5
 3301 0fa0 130A0100 		mv	s4,sp
 3302              	.LVL346:
 120:test/../test/ConsumerProducer_CPP_API_test.hpp **** 
 3303              		.loc 1 120 9 is_stmt 1 discriminator 3
 120:test/../test/ConsumerProducer_CPP_API_test.hpp **** 
 3304              		.loc 1 120 42 is_stmt 0 discriminator 3
 3305 0fa4 1B871900 		addiw	a4,s3,1
 3306              	.LVL347:
 120:test/../test/ConsumerProducer_CPP_API_test.hpp **** 
 3307              		.loc 1 120 21 discriminator 3
 3308 0fa8 93171700 		slli	a5,a4,1
 3309 0fac B387E700 		add	a5,a5,a4
 3310 0fb0 93973700 		slli	a5,a5,3
 3311 0fb4 9387F700 		addi	a5,a5,15
 3312 0fb8 93F707FF 		andi	a5,a5,-16
 3313 0fbc 3301F140 		sub	sp,sp,a5
 3314              	.LVL348:
 3315 0fc0 130B0100 		mv	s6,sp
 3316              	.LVL349:
 122:test/../test/ConsumerProducer_CPP_API_test.hpp ****         threadData[threadNum].buffer = buffer;
 3317              		.loc 1 122 9 is_stmt 1 discriminator 3
 122:test/../test/ConsumerProducer_CPP_API_test.hpp ****         threadData[threadNum].buffer = buffer;
 3318              		.loc 1 122 34 is_stmt 0 discriminator 3
GAS LISTING /tmp/ccxRZoB4.s 			page 80


 3319 0fc4 93941900 		slli	s1,s3,1
 3320 0fc8 B3843401 		add	s1,s1,s3
 3321 0fcc 93943400 		slli	s1,s1,3
 3322 0fd0 B3049B00 		add	s1,s6,s1
 3323 0fd4 23A03401 		sw	s3,0(s1)
 123:test/../test/ConsumerProducer_CPP_API_test.hpp ****         threadData[threadNum].sem = waitForAll;
 3324              		.loc 1 123 9 is_stmt 1 discriminator 3
 123:test/../test/ConsumerProducer_CPP_API_test.hpp ****         threadData[threadNum].sem = waitForAll;
 3325              		.loc 1 123 38 is_stmt 0 discriminator 3
 3326 0fd8 23B45401 		sd	s5,8(s1)
 124:test/../test/ConsumerProducer_CPP_API_test.hpp ****         Thread *consumer = new Consumer(&threadData[threadNum]);
 3327              		.loc 1 124 9 is_stmt 1 discriminator 3
 124:test/../test/ConsumerProducer_CPP_API_test.hpp ****         Thread *consumer = new Consumer(&threadData[threadNum]);
 3328              		.loc 1 124 35 is_stmt 0 discriminator 3
 3329 0fdc 83378902 		ld	a5,40(s2)
 3330 0fe0 23B8F400 		sd	a5,16(s1)
 125:test/../test/ConsumerProducer_CPP_API_test.hpp ****         consumer->start();
 3331              		.loc 1 125 9 is_stmt 1 discriminator 3
 125:test/../test/ConsumerProducer_CPP_API_test.hpp ****         consumer->start();
 3332              		.loc 1 125 63 is_stmt 0 discriminator 3
 3333 0fe4 13058001 		li	a0,24
 3334              	.LEHB9:
 3335 0fe8 97000000 		call	_ZN6ThreadnwEm@plt
 3335      E7800000 
 3336              	.LVL350:
 3337 0ff0 930B0500 		mv	s7,a0
 3338              	.LVL351:
 3339              	.LBB249:
 3340              	.LBB250:
 3341              	.LBB251:
 3342              	.LBB252:
 3343              		.loc 5 27 33 discriminator 3
 3344 0ff4 23340500 		sd	zero,8(a0)
 3345              	.LVL352:
 3346              	.LBE252:
 3347              	.LBE251:
  67:test/../test/ConsumerProducer_CPP_API_test.hpp **** 
 3348              		.loc 1 67 54 discriminator 3
 3349 0ff8 97070000 		lla	a5,_ZTVN19ConsumerProducerCPP8ConsumerE+16
 3349      93870700 
 3350 1000 2330F500 		sd	a5,0(a0)
 3351 1004 23389500 		sd	s1,16(a0)
 3352              	.LVL353:
 3353              	.LBE250:
 3354              	.LBE249:
 126:test/../test/ConsumerProducer_CPP_API_test.hpp **** 
 3355              		.loc 1 126 9 is_stmt 1 discriminator 3
 126:test/../test/ConsumerProducer_CPP_API_test.hpp **** 
 3356              		.loc 1 126 24 is_stmt 0 discriminator 3
 3357 1008 97000000 		call	_ZN6Thread5startEv@plt
 3357      E7800000 
 3358              	.LVL354:
 128:test/../test/ConsumerProducer_CPP_API_test.hpp ****         threadData[0].buffer = buffer;
 3359              		.loc 1 128 9 is_stmt 1 discriminator 3
 128:test/../test/ConsumerProducer_CPP_API_test.hpp ****         threadData[0].buffer = buffer;
 3360              		.loc 1 128 26 is_stmt 0 discriminator 3
 3361 1010 23200B00 		sw	zero,0(s6)
GAS LISTING /tmp/ccxRZoB4.s 			page 81


 129:test/../test/ConsumerProducer_CPP_API_test.hpp ****         threadData[0].sem = waitForAll;
 3362              		.loc 1 129 9 is_stmt 1 discriminator 3
 129:test/../test/ConsumerProducer_CPP_API_test.hpp ****         threadData[0].sem = waitForAll;
 3363              		.loc 1 129 30 is_stmt 0 discriminator 3
 3364 1014 23345B01 		sd	s5,8(s6)
 130:test/../test/ConsumerProducer_CPP_API_test.hpp ****         producers[0] = new ProducerKeyborad(&threadData[0]);
 3365              		.loc 1 130 9 is_stmt 1 discriminator 3
 130:test/../test/ConsumerProducer_CPP_API_test.hpp ****         producers[0] = new ProducerKeyborad(&threadData[0]);
 3366              		.loc 1 130 27 is_stmt 0 discriminator 3
 3367 1018 83378902 		ld	a5,40(s2)
 3368 101c 2338FB00 		sd	a5,16(s6)
 131:test/../test/ConsumerProducer_CPP_API_test.hpp ****         producers[0]->start();
 3369              		.loc 1 131 9 is_stmt 1 discriminator 3
 131:test/../test/ConsumerProducer_CPP_API_test.hpp ****         producers[0]->start();
 3370              		.loc 1 131 59 is_stmt 0 discriminator 3
 3371 1020 13058001 		li	a0,24
 3372 1024 97000000 		call	_ZN6ThreadnwEm@plt
 3372      E7800000 
 3373              	.LVL355:
 3374              	.LBB253:
 3375              	.LBB254:
 3376              	.LBB255:
 3377              	.LBB256:
 3378              		.loc 5 27 33 discriminator 3
 3379 102c 23340500 		sd	zero,8(a0)
 3380              	.LVL356:
 3381              	.LBE256:
 3382              	.LBE255:
  28:test/../test/ConsumerProducer_CPP_API_test.hpp **** 
 3383              		.loc 1 28 62 discriminator 3
 3384 1030 17070000 		lla	a4,_ZTVN19ConsumerProducerCPP16ProducerKeyboradE+16
 3384      13070700 
 3385 1038 2330E500 		sd	a4,0(a0)
 3386 103c 23386501 		sd	s6,16(a0)
 3387              	.LVL357:
 3388              	.LBE254:
 3389              	.LBE253:
 131:test/../test/ConsumerProducer_CPP_API_test.hpp ****         producers[0]->start();
 3390              		.loc 1 131 22 discriminator 3
 3391 1040 2330AA00 		sd	a0,0(s4)
 132:test/../test/ConsumerProducer_CPP_API_test.hpp **** 
 3392              		.loc 1 132 9 is_stmt 1 discriminator 3
 132:test/../test/ConsumerProducer_CPP_API_test.hpp **** 
 3393              		.loc 1 132 28 is_stmt 0 discriminator 3
 3394 1044 97000000 		call	_ZN6Thread5startEv@plt
 3394      E7800000 
 3395              	.LVL358:
 3396              	.LBB257:
 134:test/../test/ConsumerProducer_CPP_API_test.hpp ****             threadData[i].id = i;
 3397              		.loc 1 134 18 discriminator 3
 3398 104c 13091000 		li	s2,1
 3399              	.L187:
 3400              	.LVL359:
 134:test/../test/ConsumerProducer_CPP_API_test.hpp ****             threadData[i].id = i;
 3401              		.loc 1 134 27 is_stmt 1 discriminator 1
 3402 1050 63523907 		bge	s2,s3,.L186
 135:test/../test/ConsumerProducer_CPP_API_test.hpp ****             threadData[i].buffer = buffer;
GAS LISTING /tmp/ccxRZoB4.s 			page 82


 3403              		.loc 1 135 13
 135:test/../test/ConsumerProducer_CPP_API_test.hpp ****             threadData[i].buffer = buffer;
 3404              		.loc 1 135 30 is_stmt 0
 3405 1054 93141900 		slli	s1,s2,1
 3406 1058 B3842401 		add	s1,s1,s2
 3407 105c 93943400 		slli	s1,s1,3
 3408 1060 B3049B00 		add	s1,s6,s1
 3409 1064 23A02401 		sw	s2,0(s1)
 136:test/../test/ConsumerProducer_CPP_API_test.hpp ****             threadData[i].sem = waitForAll;
 3410              		.loc 1 136 13 is_stmt 1
 136:test/../test/ConsumerProducer_CPP_API_test.hpp ****             threadData[i].sem = waitForAll;
 3411              		.loc 1 136 34 is_stmt 0
 3412 1068 23B45401 		sd	s5,8(s1)
 137:test/../test/ConsumerProducer_CPP_API_test.hpp **** 
 3413              		.loc 1 137 13 is_stmt 1
 137:test/../test/ConsumerProducer_CPP_API_test.hpp **** 
 3414              		.loc 1 137 31 is_stmt 0
 3415 106c 97070000 		ld	a5,.LANCHOR0+40
 3415      83B70700 
 3416 1074 23B8F400 		sd	a5,16(s1)
 139:test/../test/ConsumerProducer_CPP_API_test.hpp ****             producers[i]->start();
 3417              		.loc 1 139 13 is_stmt 1
 139:test/../test/ConsumerProducer_CPP_API_test.hpp ****             producers[i]->start();
 3418              		.loc 1 139 55 is_stmt 0
 3419 1078 13058001 		li	a0,24
 3420 107c 97000000 		call	_ZN6ThreadnwEm@plt
 3420      E7800000 
 3421              	.LVL360:
 3422              	.LBB258:
 3423              	.LBB259:
 3424              	.LBB260:
 3425              	.LBB261:
 3426              		.loc 5 27 33
 3427 1084 23340500 		sd	zero,8(a0)
 3428              	.LVL361:
 3429              	.LBE261:
 3430              	.LBE260:
  48:test/../test/ConsumerProducer_CPP_API_test.hpp **** 
 3431              		.loc 1 48 54
 3432 1088 17070000 		lla	a4,_ZTVN19ConsumerProducerCPP8ProducerE+16
 3432      13070700 
 3433 1090 2330E500 		sd	a4,0(a0)
 3434 1094 23389500 		sd	s1,16(a0)
 3435              	.LVL362:
 3436              	.LBE259:
 3437              	.LBE258:
 139:test/../test/ConsumerProducer_CPP_API_test.hpp ****             producers[i]->start();
 3438              		.loc 1 139 26
 3439 1098 13173900 		slli	a4,s2,3
 3440 109c 3307EA00 		add	a4,s4,a4
 3441 10a0 2330A700 		sd	a0,0(a4)
 140:test/../test/ConsumerProducer_CPP_API_test.hpp **** 
 3442              		.loc 1 140 13 is_stmt 1
 140:test/../test/ConsumerProducer_CPP_API_test.hpp **** 
 3443              		.loc 1 140 32 is_stmt 0
 3444 10a4 97000000 		call	_ZN6Thread5startEv@plt
 3444      E7800000 
GAS LISTING /tmp/ccxRZoB4.s 			page 83


 3445              	.LVL363:
 134:test/../test/ConsumerProducer_CPP_API_test.hpp ****             threadData[i].id = i;
 3446              		.loc 1 134 9 is_stmt 1
 3447 10ac 1B091900 		addiw	s2,s2,1
 3448              	.LVL364:
 3449 10b0 6FF01FFA 		j	.L187
 3450              	.LVL365:
 3451              	.L186:
 3452              	.LBE257:
 144:test/../test/ConsumerProducer_CPP_API_test.hpp **** 
 3453              		.loc 1 144 9
 144:test/../test/ConsumerProducer_CPP_API_test.hpp **** 
 3454              		.loc 1 144 25 is_stmt 0
 3455 10b4 97000000 		call	_ZN6Thread8dispatchEv@plt
 3455      E7800000 
 3456              	.LVL366:
 3457              	.LBB262:
 146:test/../test/ConsumerProducer_CPP_API_test.hpp ****             waitForAll->wait();
 3458              		.loc 1 146 18
 3459 10bc 93040000 		li	s1,0
 3460              	.L189:
 3461              	.LVL367:
 146:test/../test/ConsumerProducer_CPP_API_test.hpp ****             waitForAll->wait();
 3462              		.loc 1 146 27 is_stmt 1 discriminator 1
 3463 10c0 63CE9900 		bgt	s1,s3,.L188
 147:test/../test/ConsumerProducer_CPP_API_test.hpp ****         }
 3464              		.loc 1 147 13
 147:test/../test/ConsumerProducer_CPP_API_test.hpp ****         }
 3465              		.loc 1 147 29 is_stmt 0
 3466 10c4 17050000 		ld	a0,.LANCHOR0+40
 3466      03350500 
 3467 10cc 97000000 		call	_ZN9Semaphore4waitEv@plt
 3467      E7800000 
 3468              	.LVL368:
 146:test/../test/ConsumerProducer_CPP_API_test.hpp ****             waitForAll->wait();
 3469              		.loc 1 146 9 is_stmt 1
 3470 10d4 9B841400 		addiw	s1,s1,1
 3471              	.LVL369:
 3472 10d8 6FF09FFE 		j	.L189
 3473              	.LVL370:
 3474              	.L188:
 3475              	.LBE262:
 150:test/../test/ConsumerProducer_CPP_API_test.hpp ****         for (int i = 0; i < threadNum; i++) {
 3476              		.loc 1 150 9
 150:test/../test/ConsumerProducer_CPP_API_test.hpp ****         for (int i = 0; i < threadNum; i++) {
 3477              		.loc 1 150 16 is_stmt 0
 3478 10dc 17050000 		ld	a0,.LANCHOR0+40
 3478      03350500 
 150:test/../test/ConsumerProducer_CPP_API_test.hpp ****         for (int i = 0; i < threadNum; i++) {
 3479              		.loc 1 150 26
 3480 10e4 63080500 		beqz	a0,.L190
 150:test/../test/ConsumerProducer_CPP_API_test.hpp ****         for (int i = 0; i < threadNum; i++) {
 3481              		.loc 1 150 16 discriminator 1
 3482 10e8 83370500 		ld	a5,0(a0)
 3483 10ec 83B78700 		ld	a5,8(a5)
 3484 10f0 E7800700 		jalr	a5
 3485              	.LVL371:
GAS LISTING /tmp/ccxRZoB4.s 			page 84


 3486              	.L190:
 3487              	.LBB263:
 146:test/../test/ConsumerProducer_CPP_API_test.hpp ****             waitForAll->wait();
 3488              		.loc 1 146 18 discriminator 1
 3489 10f4 93040000 		li	s1,0
 3490              	.LVL372:
 3491 10f8 6F008000 		j	.L193
 3492              	.LVL373:
 3493              	.L192:
 3494              	.LBE263:
 3495              	.LBB264:
 151:test/../test/ConsumerProducer_CPP_API_test.hpp ****             delete producers[i];
 3496              		.loc 1 151 9 is_stmt 1 discriminator 2
 3497 10fc 9B841400 		addiw	s1,s1,1
 3498              	.LVL374:
 3499              	.L193:
 151:test/../test/ConsumerProducer_CPP_API_test.hpp ****             delete producers[i];
 3500              		.loc 1 151 27 discriminator 1
 3501 1100 63D23403 		bge	s1,s3,.L191
 152:test/../test/ConsumerProducer_CPP_API_test.hpp ****         }
 3502              		.loc 1 152 13
 152:test/../test/ConsumerProducer_CPP_API_test.hpp ****         }
 3503              		.loc 1 152 31 is_stmt 0
 3504 1104 93973400 		slli	a5,s1,3
 3505 1108 B307FA00 		add	a5,s4,a5
 3506 110c 03B50700 		ld	a0,0(a5)
 152:test/../test/ConsumerProducer_CPP_API_test.hpp ****         }
 3507              		.loc 1 152 32
 3508 1110 E30605FE 		beqz	a0,.L192
 152:test/../test/ConsumerProducer_CPP_API_test.hpp ****         }
 3509              		.loc 1 152 31 discriminator 1
 3510 1114 83370500 		ld	a5,0(a0)
 3511 1118 83B78700 		ld	a5,8(a5)
 3512 111c E7800700 		jalr	a5
 3513              	.LVL375:
 3514 1120 6FF0DFFD 		j	.L192
 3515              	.L191:
 3516              	.LBE264:
 154:test/../test/ConsumerProducer_CPP_API_test.hpp ****         delete buffer;
 3517              		.loc 1 154 9 is_stmt 1
 154:test/../test/ConsumerProducer_CPP_API_test.hpp ****         delete buffer;
 3518              		.loc 1 154 24 is_stmt 0
 3519 1124 638A0B00 		beqz	s7,.L194
 154:test/../test/ConsumerProducer_CPP_API_test.hpp ****         delete buffer;
 3520              		.loc 1 154 16 discriminator 1
 3521 1128 83B70B00 		ld	a5,0(s7)
 3522 112c 83B78700 		ld	a5,8(a5)
 3523 1130 13850B00 		mv	a0,s7
 3524 1134 E7800700 		jalr	a5
 3525              	.LVL376:
 3526              	.L194:
 3527              		.loc 1 155 9 is_stmt 1
 3528              		.loc 1 155 22 is_stmt 0
 3529 1138 638E0A00 		beqz	s5,.L195
 3530              		.loc 1 155 16 discriminator 1
 3531 113c 13850A00 		mv	a0,s5
 3532 1140 97000000 		call	_ZN9BufferCPPD1Ev@plt
GAS LISTING /tmp/ccxRZoB4.s 			page 85


 3532      E7800000 
 3533              	.LVL377:
 3534 1148 13850A00 		mv	a0,s5
 3535 114c 97000000 		call	_ZN9BufferCPPdlEPv@plt
 3535      E7800000 
 3536              	.LVL378:
 3537              	.L195:
 3538 1154 13010C00 		mv	sp,s8
 3539              	.LVL379:
 3540              	.L182:
 156:test/../test/ConsumerProducer_CPP_API_test.hpp ****     }
 3541              		.loc 1 156 5
 3542 1158 130104F9 		addi	sp,s0,-112
 3543              		.cfi_remember_state
 3544              		.cfi_def_cfa 2, 112
 3545 115c 83308106 		ld	ra,104(sp)
 3546              		.cfi_restore 1
 3547 1160 03340106 		ld	s0,96(sp)
 3548              		.cfi_restore 8
 3549 1164 83348105 		ld	s1,88(sp)
 3550              		.cfi_restore 9
 3551 1168 03390105 		ld	s2,80(sp)
 3552              		.cfi_restore 18
 3553 116c 83398104 		ld	s3,72(sp)
 3554              		.cfi_restore 19
 3555              	.LVL380:
 3556 1170 033A0104 		ld	s4,64(sp)
 3557              		.cfi_restore 20
 3558 1174 833A8103 		ld	s5,56(sp)
 3559              		.cfi_restore 21
 3560 1178 033B0103 		ld	s6,48(sp)
 3561              		.cfi_restore 22
 3562 117c 833B8102 		ld	s7,40(sp)
 3563              		.cfi_restore 23
 3564 1180 033C0102 		ld	s8,32(sp)
 3565              		.cfi_restore 24
 3566 1184 13010107 		addi	sp,sp,112
 3567              		.cfi_def_cfa_offset 0
 3568 1188 67800000 		jr	ra
 3569              	.LVL381:
 3570              	.L199:
 3571              		.cfi_restore_state
 3572 118c 93040500 		mv	s1,a0
 3573              	.LVL382:
 116:test/../test/ConsumerProducer_CPP_API_test.hpp **** 
 3574              		.loc 1 116 44
 3575 1190 13850A00 		mv	a0,s5
 3576 1194 97000000 		call	_ZN9BufferCPPdlEPv@plt
 3576      E7800000 
 3577              	.LVL383:
 3578 119c 13850400 		mv	a0,s1
 3579 11a0 97000000 		call	_Unwind_Resume@plt
 3579      E7800000 
 3580              	.LVL384:
 3581              	.L200:
 3582 11a8 13090500 		mv	s2,a0
 118:test/../test/ConsumerProducer_CPP_API_test.hpp ****         Thread *producers[threadNum];
GAS LISTING /tmp/ccxRZoB4.s 			page 86


 3583              		.loc 1 118 37
 3584 11ac 13850400 		mv	a0,s1
 3585 11b0 97000000 		call	_ZN9SemaphoredlEPv@plt
 3585      E7800000 
 3586              	.LVL385:
 3587 11b8 13050900 		mv	a0,s2
 3588 11bc 97000000 		call	_Unwind_Resume@plt
 3588      E7800000 
 3589              	.LVL386:
 3590              	.LEHE9:
 3591              		.cfi_endproc
 3592              	.LFE106:
 3593              		.section	.gcc_except_table
 3594              	.LLSDA106:
 3595 0045 FF       		.byte	0xff
 3596 0046 FF       		.byte	0xff
 3597 0047 03       		.byte	0x3
 3598 0048 41       		.byte	0x41
 3599 0049 00000000 		.4byte	.LEHB5-.LFB106
 3600 004d 00000000 		.4byte	.LEHE5-.LEHB5
 3601 0051 00000000 		.4byte	0
 3602 0055 00       		.byte	0
 3603 0056 00000000 		.4byte	.LEHB6-.LFB106
 3604 005a 00000000 		.4byte	.LEHE6-.LEHB6
 3605 005e 00000000 		.4byte	.L199-.LFB106
 3606 0062 00       		.byte	0
 3607 0063 00000000 		.4byte	.LEHB7-.LFB106
 3608 0067 00000000 		.4byte	.LEHE7-.LEHB7
 3609 006b 00000000 		.4byte	0
 3610 006f 00       		.byte	0
 3611 0070 00000000 		.4byte	.LEHB8-.LFB106
 3612 0074 00000000 		.4byte	.LEHE8-.LEHB8
 3613 0078 00000000 		.4byte	.L200-.LFB106
 3614 007c 00       		.byte	0
 3615 007d 00000000 		.4byte	.LEHB9-.LFB106
 3616 0081 00000000 		.4byte	.LEHE9-.LEHB9
 3617 0085 00000000 		.4byte	0
 3618 0089 00       		.byte	0
 3619              		.text
 3621              		.align	2
 3622              		.globl	_Z8userMainv
 3624              	_Z8userMainv:
 3625              	.LFB107:
 3626              		.file 6 "test/userMain.cpp"
   1:test/userMain.cpp **** //#include "../test/Threads_C_API_test.hpp" // zadatak 2, niti C API i sinhrona promena konteksta
   2:test/userMain.cpp **** #include "../test/Threads_CPP_API_test.hpp" // zadatak 2., niti CPP API i sinhrona promena kontekst
   3:test/userMain.cpp **** 
   4:test/userMain.cpp **** //#include "../test/ConsumerProducer_C_API_test.h" // zadatak 3., kompletan C API sa semaforima, si
   5:test/userMain.cpp **** #include "../test/ConsumerProducer_CPP_Sync_API_test.hpp" // zadatak 3., kompletan CPP API sa semaf
   6:test/userMain.cpp **** 
   7:test/userMain.cpp **** #include "../test/ThreadSleep_C_API_test.hpp" // thread_sleep test C API
   8:test/userMain.cpp **** #include "../test/ConsumerProducer_CPP_API_test.hpp" // zadatak 4. CPP API i asinhrona promena kont
   9:test/userMain.cpp **** 
  10:test/userMain.cpp **** 
  11:test/userMain.cpp **** 
  12:test/userMain.cpp **** 
  13:test/userMain.cpp **** void userMain() {
GAS LISTING /tmp/ccxRZoB4.s 			page 87


 3627              		.loc 6 13 17 is_stmt 1
 3628              		.cfi_startproc
 3629 11c4 130101FF 		addi	sp,sp,-16
 3630              		.cfi_def_cfa_offset 16
 3631 11c8 23341100 		sd	ra,8(sp)
 3632 11cc 23308100 		sd	s0,0(sp)
 3633              		.cfi_offset 1, -8
 3634              		.cfi_offset 8, -16
 3635 11d0 13040101 		addi	s0,sp,16
 3636              		.cfi_def_cfa 8, 0
  14:test/userMain.cpp **** 
  15:test/userMain.cpp ****     //Threads_C_API_test(); // zadatak 2., niti C API i sinhrona promena konteksta
  16:test/userMain.cpp ****     //Threads_CPP_API_test(); // zadatak 2., niti CPP API i sinhrona promena konteksta
  17:test/userMain.cpp **** 
  18:test/userMain.cpp ****     //producerConsumer_C_API(); // zadatak 3., kompletan C API sa semaforima, sinhrona promena kont
  19:test/userMain.cpp ****     //producerConsumer_CPP_Sync_API(); // zadatak 3., kompletan CPP API sa semaforima, sinhrona pro
  20:test/userMain.cpp **** 
  21:test/userMain.cpp ****     //testSleeping(); // thread_sleep test C API
  22:test/userMain.cpp **** 
  23:test/userMain.cpp ****     ConsumerProducerCPP::testConsumerProducer(); // zadatak 4. CPP API i asinhrona promena kontekst
 3637              		.loc 6 23 5
 3638              		.loc 6 23 46 is_stmt 0
 3639 11d4 97000000 		call	_ZN19ConsumerProducerCPP20testConsumerProducerEv
 3639      E7800000 
 3640              	.LVL387:
  24:test/userMain.cpp **** 
  25:test/userMain.cpp **** 
  26:test/userMain.cpp **** }...
 3641              		.loc 6 26 1
 3642 11dc 83308100 		ld	ra,8(sp)
 3643              		.cfi_restore 1
 3644 11e0 03340100 		ld	s0,0(sp)
 3645              		.cfi_restore 8
 3646              		.cfi_def_cfa 2, 16
 3647 11e4 13010101 		addi	sp,sp,16
 3648              		.cfi_def_cfa_offset 0
 3649 11e8 67800000 		jr	ra
 3650              		.cfi_endproc
 3651              	.LFE107:
 3653              		.weak	_ZTV7WorkerA
 3654              		.section	.data.rel.ro.local._ZTV7WorkerA,"awG",@progbits,_ZTV7WorkerA,comdat
 3655              		.align	3
 3658              	_ZTV7WorkerA:
 3659 0000 00000000 		.dword	0
 3659      00000000 
 3660 0008 00000000 		.dword	0
 3660      00000000 
 3661 0010 00000000 		.dword	_ZN7WorkerAD1Ev
 3661      00000000 
 3662 0018 00000000 		.dword	_ZN7WorkerAD0Ev
 3662      00000000 
 3663 0020 00000000 		.dword	_ZN7WorkerA3runEv
 3663      00000000 
 3664              		.weak	_ZTV7WorkerB
 3665              		.section	.data.rel.ro.local._ZTV7WorkerB,"awG",@progbits,_ZTV7WorkerB,comdat
 3666              		.align	3
 3669              	_ZTV7WorkerB:
GAS LISTING /tmp/ccxRZoB4.s 			page 88


 3670 0000 00000000 		.dword	0
 3670      00000000 
 3671 0008 00000000 		.dword	0
 3671      00000000 
 3672 0010 00000000 		.dword	_ZN7WorkerBD1Ev
 3672      00000000 
 3673 0018 00000000 		.dword	_ZN7WorkerBD0Ev
 3673      00000000 
 3674 0020 00000000 		.dword	_ZN7WorkerB3runEv
 3674      00000000 
 3675              		.weak	_ZTV7WorkerC
 3676              		.section	.data.rel.ro.local._ZTV7WorkerC,"awG",@progbits,_ZTV7WorkerC,comdat
 3677              		.align	3
 3680              	_ZTV7WorkerC:
 3681 0000 00000000 		.dword	0
 3681      00000000 
 3682 0008 00000000 		.dword	0
 3682      00000000 
 3683 0010 00000000 		.dword	_ZN7WorkerCD1Ev
 3683      00000000 
 3684 0018 00000000 		.dword	_ZN7WorkerCD0Ev
 3684      00000000 
 3685 0020 00000000 		.dword	_ZN7WorkerC3runEv
 3685      00000000 
 3686              		.weak	_ZTV7WorkerD
 3687              		.section	.data.rel.ro.local._ZTV7WorkerD,"awG",@progbits,_ZTV7WorkerD,comdat
 3688              		.align	3
 3691              	_ZTV7WorkerD:
 3692 0000 00000000 		.dword	0
 3692      00000000 
 3693 0008 00000000 		.dword	0
 3693      00000000 
 3694 0010 00000000 		.dword	_ZN7WorkerDD1Ev
 3694      00000000 
 3695 0018 00000000 		.dword	_ZN7WorkerDD0Ev
 3695      00000000 
 3696 0020 00000000 		.dword	_ZN7WorkerD3runEv
 3696      00000000 
 3697              		.weak	_ZTV16ProducerKeyboard
 3698              		.section	.data.rel.ro.local._ZTV16ProducerKeyboard,"awG",@progbits,_ZTV16ProducerKeyboard,comdat
 3699              		.align	3
 3702              	_ZTV16ProducerKeyboard:
 3703 0000 00000000 		.dword	0
 3703      00000000 
 3704 0008 00000000 		.dword	0
 3704      00000000 
 3705 0010 00000000 		.dword	_ZN16ProducerKeyboardD1Ev
 3705      00000000 
 3706 0018 00000000 		.dword	_ZN16ProducerKeyboardD0Ev
 3706      00000000 
 3707 0020 00000000 		.dword	_ZN16ProducerKeyboard3runEv
 3707      00000000 
 3708              		.weak	_ZTV8Producer
 3709              		.section	.data.rel.ro.local._ZTV8Producer,"awG",@progbits,_ZTV8Producer,comdat
 3710              		.align	3
 3713              	_ZTV8Producer:
 3714 0000 00000000 		.dword	0
GAS LISTING /tmp/ccxRZoB4.s 			page 89


 3714      00000000 
 3715 0008 00000000 		.dword	0
 3715      00000000 
 3716 0010 00000000 		.dword	_ZN8ProducerD1Ev
 3716      00000000 
 3717 0018 00000000 		.dword	_ZN8ProducerD0Ev
 3717      00000000 
 3718 0020 00000000 		.dword	_ZN8Producer3runEv
 3718      00000000 
 3719              		.weak	_ZTV8Consumer
 3720              		.section	.data.rel.ro.local._ZTV8Consumer,"awG",@progbits,_ZTV8Consumer,comdat
 3721              		.align	3
 3724              	_ZTV8Consumer:
 3725 0000 00000000 		.dword	0
 3725      00000000 
 3726 0008 00000000 		.dword	0
 3726      00000000 
 3727 0010 00000000 		.dword	_ZN8ConsumerD1Ev
 3727      00000000 
 3728 0018 00000000 		.dword	_ZN8ConsumerD0Ev
 3728      00000000 
 3729 0020 00000000 		.dword	_ZN8Consumer3runEv
 3729      00000000 
 3730              		.weak	_ZTVN19ConsumerProducerCPP16ProducerKeyboradE
 3731              		.section	.data.rel.ro.local._ZTVN19ConsumerProducerCPP16ProducerKeyboradE,"awG",@progbits,_ZTVN19C
 3732              		.align	3
 3735              	_ZTVN19ConsumerProducerCPP16ProducerKeyboradE:
 3736 0000 00000000 		.dword	0
 3736      00000000 
 3737 0008 00000000 		.dword	0
 3737      00000000 
 3738 0010 00000000 		.dword	_ZN19ConsumerProducerCPP16ProducerKeyboradD1Ev
 3738      00000000 
 3739 0018 00000000 		.dword	_ZN19ConsumerProducerCPP16ProducerKeyboradD0Ev
 3739      00000000 
 3740 0020 00000000 		.dword	_ZN19ConsumerProducerCPP16ProducerKeyborad3runEv
 3740      00000000 
 3741              		.weak	_ZTVN19ConsumerProducerCPP8ProducerE
 3742              		.section	.data.rel.ro.local._ZTVN19ConsumerProducerCPP8ProducerE,"awG",@progbits,_ZTVN19ConsumerPr
 3743              		.align	3
 3746              	_ZTVN19ConsumerProducerCPP8ProducerE:
 3747 0000 00000000 		.dword	0
 3747      00000000 
 3748 0008 00000000 		.dword	0
 3748      00000000 
 3749 0010 00000000 		.dword	_ZN19ConsumerProducerCPP8ProducerD1Ev
 3749      00000000 
 3750 0018 00000000 		.dword	_ZN19ConsumerProducerCPP8ProducerD0Ev
 3750      00000000 
 3751 0020 00000000 		.dword	_ZN19ConsumerProducerCPP8Producer3runEv
 3751      00000000 
 3752              		.weak	_ZTVN19ConsumerProducerCPP8ConsumerE
 3753              		.section	.data.rel.ro.local._ZTVN19ConsumerProducerCPP8ConsumerE,"awG",@progbits,_ZTVN19ConsumerPr
 3754              		.align	3
 3757              	_ZTVN19ConsumerProducerCPP8ConsumerE:
 3758 0000 00000000 		.dword	0
 3758      00000000 
GAS LISTING /tmp/ccxRZoB4.s 			page 90


 3759 0008 00000000 		.dword	0
 3759      00000000 
 3760 0010 00000000 		.dword	_ZN19ConsumerProducerCPP8ConsumerD1Ev
 3760      00000000 
 3761 0018 00000000 		.dword	_ZN19ConsumerProducerCPP8ConsumerD0Ev
 3761      00000000 
 3762 0020 00000000 		.dword	_ZN19ConsumerProducerCPP8Consumer3runEv
 3762      00000000 
 3763              		.globl	_ZN19ConsumerProducerCPP9threadEndE
 3764              		.globl	_ZN19ConsumerProducerCPP10waitForAllE
 3765              		.globl	finished
 3766              		.globl	threadEnd
 3767              		.globl	waitForAll
 3768              		.globl	finishedD
 3769              		.globl	finishedC
 3770              		.globl	finishedB
 3771              		.globl	finishedA
 3772              		.section	.rodata
 3773              		.align	3
 3774              		.set	.LANCHOR1,. + 0
 3775              	.LC0:
 3776 0000 0A000000 		.dword	10
 3776      00000000 
 3777 0008 14000000 		.dword	20
 3777      00000000 
 3778 0010 1E000000 		.dword	30
 3778      00000000 
 3779 0018 28000000 		.dword	40
 3779      00000000 
 3780 0020 32000000 		.dword	50
 3780      00000000 
 3781 0028 3C000000 		.dword	60
 3781      00000000 
 3782 0030 46000000 		.dword	70
 3782      00000000 
 3783 0038 50000000 		.dword	80
 3783      00000000 
 3784 0040 5A000000 		.dword	90
 3784      00000000 
 3785              		.bss
 3786              		.align	3
 3787              		.set	.LANCHOR0,. + 0
 3790              	_ZN19ConsumerProducerCPP9threadEndE:
 3791 0000 00000000 		.zero	4
 3792 0004 00000000 		.zero	4
 3795              	finished:
 3796 0008 00000000 		.zero	9
 3796      00000000 
 3796      00
 3799              	finishedA:
 3800 0011 00       		.zero	1
 3803              	finishedB:
 3804 0012 00       		.zero	1
 3807              	finishedC:
 3808 0013 00       		.zero	1
 3811              	finishedD:
 3812 0014 00       		.zero	1
GAS LISTING /tmp/ccxRZoB4.s 			page 91


 3813 0015 000000   		.zero	3
 3816              	threadEnd:
 3817 0018 00000000 		.zero	4
 3818 001c 00000000 		.zero	4
 3821              	waitForAll:
 3822 0020 00000000 		.zero	8
 3822      00000000 
 3825              	_ZN19ConsumerProducerCPP10waitForAllE:
 3826 0028 00000000 		.zero	8
 3826      00000000 
 3827              		.text
 3828              	.Letext0:
 3829              		.file 7 "test/../test/../h/../lib/hw.h"
 3830              		.file 8 "test/../test/../h/../h/TCB.hpp"
 3831              		.file 9 "test/../test/../h/../h/list.hpp"
 3832              		.file 10 "test/../test/../h/../h/kSemaphore.hpp"
 3833              		.file 11 "test/../test/../h/syscall_c.h"
 3834              		.file 12 "test/../test/buffer_CPP_API.hpp"
 3835              		.file 13 "test/../test/../h/printing.hpp"
 14071              		.align	3
 14074              	DW.ref.__gxx_personality_v0:
 14075 0000 00000000 		.dword	__gxx_personality_v0
 14075      00000000 
 14076              		.ident	"GCC: (Ubuntu 9.4.0-1ubuntu1~20.04) 9.4.0"
 14077              		.section	.note.GNU-stack,"",@progbits
GAS LISTING /tmp/ccxRZoB4.s 			page 92

